ARM GAS  C:\Users\CHENZE~1\AppData\Local\Temp\ccOOgDD7.s 			page 1


   1              		.cpu cortex-m3
   2              		.eabi_attribute 20, 1
   3              		.eabi_attribute 21, 1
   4              		.eabi_attribute 23, 3
   5              		.eabi_attribute 24, 1
   6              		.eabi_attribute 25, 1
   7              		.eabi_attribute 26, 1
   8              		.eabi_attribute 30, 2
   9              		.eabi_attribute 34, 1
  10              		.eabi_attribute 18, 4
  11              		.file	"canBusProcess.cpp"
  12              		.text
  13              	.Ltext0:
  14              		.cfi_sections	.debug_frame
  15              		.global	__aeabi_i2f
  16              		.global	__aeabi_fmul
  17              		.section	.text._ZL18can_processEncoderPV17Encoder_canStructPK10CANRxFrame,"ax",%progbits
  18              		.align	1
  19              		.p2align 4,,15
  20              		.syntax unified
  21              		.thumb
  22              		.thumb_func
  23              		.fpu softvfp
  24              		.type	_ZL18can_processEncoderPV17Encoder_canStructPK10CANRxFrame, %function
  25              	_ZL18can_processEncoderPV17Encoder_canStructPK10CANRxFrame:
  26              	.LFB262:
  27              		.file 1 "./src/canBusProcess.cpp"
  28              		.loc 1 40 0
  29              		.cfi_startproc
  30              		@ args = 0, pretend = 0, frame = 0
  31              		@ frame_needed = 0, uses_anonymous_args = 0
  32              	.LVL0:
  33              		.loc 1 41 0
  34 0000 0288     		ldrh	r2, [r0]
  35              		.loc 1 40 0
  36 0002 10B5     		push	{r4, lr}
  37              		.cfi_def_cfa_offset 8
  38              		.cfi_offset 4, -8
  39              		.cfi_offset 14, -4
  40              		.loc 1 41 0
  41 0004 92B2     		uxth	r2, r2
  42              	.LVL1:
  43              		.loc 1 40 0
  44 0006 0446     		mov	r4, r0
  45              	.LBB50:
  46              	.LBB51:
  47              	.LBB52:
  48              	.LBB53:
  49              		.file 2 ".//os/common/ext/ARM/CMSIS/Core/Include/cmsis_gcc.h"
  50              		.loc 2 493 0
  51 0008 2023     		movs	r3, #32
  52              		.syntax unified
  53              	@ 493 ".//os/common/ext/ARM/CMSIS/Core/Include/cmsis_gcc.h" 1
  54 000a 83F31188 		MSR basepri, r3
  55              	@ 0 "" 2
  56              	.LVL2:
  57              		.thumb
ARM GAS  C:\Users\CHENZE~1\AppData\Local\Temp\ccOOgDD7.s 			page 2


  58              		.syntax unified
  59              	.LBE53:
  60              	.LBE52:
  61              	.LBE51:
  62              	.LBE50:
  63              		.loc 1 44 0
  64 000e 0123     		movs	r3, #1
  65 0010 0375     		strb	r3, [r0, #20]
  66              		.loc 1 45 0
  67 0012 087C     		ldrb	r0, [r1, #16]	@ zero_extendqisi2
  68              	.LVL3:
  69 0014 4B7C     		ldrb	r3, [r1, #17]	@ zero_extendqisi2
  70 0016 43EA0023 		orr	r3, r3, r0, lsl #8
  71 001a 2380     		strh	r3, [r4]	@ movhi
  72              		.loc 1 46 0
  73 001c 887C     		ldrb	r0, [r1, #18]	@ zero_extendqisi2
  74 001e CB7C     		ldrb	r3, [r1, #19]	@ zero_extendqisi2
  75 0020 43EA0023 		orr	r3, r3, r0, lsl #8
  76 0024 1BB2     		sxth	r3, r3
  77 0026 6380     		strh	r3, [r4, #2]	@ movhi
  78              		.loc 1 47 0
  79 0028 087D     		ldrb	r0, [r1, #20]	@ zero_extendqisi2
  80 002a 4B7D     		ldrb	r3, [r1, #21]	@ zero_extendqisi2
  81 002c 43EA0023 		orr	r3, r3, r0, lsl #8
  82 0030 1BB2     		sxth	r3, r3
  83 0032 A380     		strh	r3, [r4, #4]	@ movhi
  84              		.loc 1 48 0
  85 0034 8B7D     		ldrb	r3, [r1, #22]	@ zero_extendqisi2
  86 0036 A371     		strb	r3, [r4, #6]
  87              		.loc 1 50 0
  88 0038 2388     		ldrh	r3, [r4]
  89 003a 9B1A     		subs	r3, r3, r2
  90 003c B3F5805F 		cmp	r3, #4096
  91 0040 17DC     		bgt	.L6
  92              		.loc 1 51 0
  93 0042 2388     		ldrh	r3, [r4]
  94 0044 9A1A     		subs	r2, r3, r2
  95              	.LVL4:
  96 0046 12F5805F 		cmn	r2, #4096
  97 004a 02DA     		bge	.L3
  98              		.loc 1 51 0 is_stmt 0 discriminator 1
  99 004c A368     		ldr	r3, [r4, #8]
 100 004e 0133     		adds	r3, r3, #1
 101 0050 A360     		str	r3, [r4, #8]
 102              	.L3:
 103              		.loc 1 53 0 is_stmt 1
 104 0052 A268     		ldr	r2, [r4, #8]
 105 0054 2388     		ldrh	r3, [r4]
 106 0056 03EB4233 		add	r3, r3, r2, lsl #13
 107 005a E360     		str	r3, [r4, #12]
 108              		.loc 1 54 0
 109 005c E068     		ldr	r0, [r4, #12]
 110 005e FFF7FEFF 		bl	__aeabi_i2f
 111              	.LVL5:
 112 0062 0649     		ldr	r1, .L7
 113 0064 FFF7FEFF 		bl	__aeabi_fmul
 114              	.LVL6:
ARM GAS  C:\Users\CHENZE~1\AppData\Local\Temp\ccOOgDD7.s 			page 3


 115              	.LBB54:
 116              	.LBB55:
 117              	.LBB56:
 118              	.LBB57:
 119              	.LBB58:
 120              		.loc 2 493 0
 121 0068 0023     		movs	r3, #0
 122              	.LBE58:
 123              	.LBE57:
 124              	.LBE56:
 125              	.LBE55:
 126              	.LBE54:
 127              		.loc 1 54 0
 128 006a 2061     		str	r0, [r4, #16]	@ float
 129              	.LVL7:
 130              	.LBB63:
 131              	.LBB62:
 132              	.LBB61:
 133              	.LBB60:
 134              	.LBB59:
 135              		.loc 2 493 0
 136              		.syntax unified
 137              	@ 493 ".//os/common/ext/ARM/CMSIS/Core/Include/cmsis_gcc.h" 1
 138 006c 83F31188 		MSR basepri, r3
 139              	@ 0 "" 2
 140              	.LVL8:
 141              		.thumb
 142              		.syntax unified
 143              	.LBE59:
 144              	.LBE60:
 145              	.LBE61:
 146              	.LBE62:
 147              	.LBE63:
 148              		.loc 1 57 0
 149 0070 10BD     		pop	{r4, pc}
 150              	.LVL9:
 151              	.L6:
 152              		.loc 1 50 0 discriminator 1
 153 0072 A368     		ldr	r3, [r4, #8]
 154 0074 013B     		subs	r3, r3, #1
 155 0076 A360     		str	r3, [r4, #8]
 156 0078 EBE7     		b	.L3
 157              	.L8:
 158 007a 00BF     		.align	2
 159              	.L7:
 160 007c DB0F493A 		.word	977866715
 161              		.cfi_endproc
 162              	.LFE262:
 163              		.size	_ZL18can_processEncoderPV17Encoder_canStructPK10CANRxFrame, .-_ZL18can_processEncoderPV17Enc
 164              		.section	.text._ZL6can_rxPv,"ax",%progbits
 165              		.align	1
 166              		.p2align 4,,15
 167              		.syntax unified
 168              		.thumb
 169              		.thumb_func
 170              		.fpu softvfp
 171              		.type	_ZL6can_rxPv, %function
ARM GAS  C:\Users\CHENZE~1\AppData\Local\Temp\ccOOgDD7.s 			page 4


 172              	_ZL6can_rxPv:
 173              	.LFB264:
 174              		.loc 1 93 0
 175              		.cfi_startproc
 176              		@ args = 0, pretend = 0, frame = 48
 177              		@ frame_needed = 0, uses_anonymous_args = 0
 178              	.LVL10:
 179 0000 2DE9F043 		push	{r4, r5, r6, r7, r8, r9, lr}
 180              		.cfi_def_cfa_offset 28
 181              		.cfi_offset 4, -28
 182              		.cfi_offset 5, -24
 183              		.cfi_offset 6, -20
 184              		.cfi_offset 7, -16
 185              		.cfi_offset 8, -12
 186              		.cfi_offset 9, -8
 187              		.cfi_offset 14, -4
 188              	.LBB76:
 189              	.LBB77:
 190              		.file 3 ".//os/rt/include/chregistry.h"
 191              		.loc 3 136 0
 192 0004 2C4D     		ldr	r5, .L27
 193 0006 2D4A     		ldr	r2, .L27+4
 194 0008 AB69     		ldr	r3, [r5, #24]
 195              	.LBE77:
 196              	.LBE76:
 197              		.loc 1 93 0
 198 000a 8DB0     		sub	sp, sp, #52
 199              		.cfi_def_cfa_offset 80
 200              		.loc 1 101 0
 201 000c 00F11809 		add	r9, r0, #24
 202              	.LBB79:
 203              	.LBB78:
 204              		.loc 3 136 0
 205 0010 9A61     		str	r2, [r3, #24]
 206              	.LBE78:
 207              	.LBE79:
 208              		.loc 1 93 0
 209 0012 0446     		mov	r4, r0
 210              	.LVL11:
 211              	.LBB80:
 212              	.LBB81:
 213              	.LBB82:
 214              		.file 4 ".//os/rt/include/chevents.h"
 215              		.loc 4 194 0
 216 0014 01A9     		add	r1, sp, #4
 217              	.LVL12:
 218 0016 4846     		mov	r0, r9
 219              	.LVL13:
 220 0018 4FF0FF33 		mov	r3, #-1
 221 001c 0122     		movs	r2, #1
 222 001e FFF7FEFF 		bl	chEvtRegisterMaskWithFlags
 223              	.LVL14:
 224              	.LBE82:
 225              	.LBE81:
 226              	.LBE80:
 227              	.LBB83:
 228              	.LBB84:
ARM GAS  C:\Users\CHENZE~1\AppData\Local\Temp\ccOOgDD7.s 			page 5


 229              		.loc 1 80 0
 230 0022 274E     		ldr	r6, .L27+8
 231              		.loc 1 76 0
 232 0024 A6F13008 		sub	r8, r6, #48
 233              		.loc 1 72 0
 234 0028 A6F11807 		sub	r7, r6, #24
 235              	.L11:
 236              	.LBE84:
 237              	.LBE83:
 238              	.LBB86:
 239              	.LBB87:
 240              		.file 5 ".//os/rt/include/chthreads.h"
 241              		.loc 5 347 0
 242 002c AB69     		ldr	r3, [r5, #24]
 243              	.LBE87:
 244              	.LBE86:
 245              		.loc 1 102 0
 246 002e 93F82130 		ldrb	r3, [r3, #33]	@ zero_extendqisi2
 247 0032 5907     		lsls	r1, r3, #29
 248 0034 35D4     		bmi	.L10
 249              		.loc 1 104 0
 250 0036 C821     		movs	r1, #200
 251 0038 4FF0FF30 		mov	r0, #-1
 252 003c FFF7FEFF 		bl	chEvtWaitAnyTimeout
 253              	.LVL15:
 254 0040 0028     		cmp	r0, #0
 255 0042 F3D0     		beq	.L11
 256              	.L13:
 257              		.loc 1 106 0
 258 0044 0023     		movs	r3, #0
 259 0046 06AA     		add	r2, sp, #24
 260 0048 1946     		mov	r1, r3
 261 004a 2046     		mov	r0, r4
 262 004c FFF7FEFF 		bl	canReceiveTimeout
 263              	.LVL16:
 264              		.loc 1 107 0
 265 0050 0028     		cmp	r0, #0
 266 0052 EBD1     		bne	.L11
 267              	.LBB88:
 268              	.LBB85:
 269              		.loc 1 61 0
 270 0054 6FF40072 		mvn	r2, #512
 271 0058 BDF82030 		ldrh	r3, [sp, #32]
 272 005c C3F30A03 		ubfx	r3, r3, #0, #11
 273 0060 1344     		add	r3, r3, r2
 274 0062 042B     		cmp	r3, #4
 275 0064 EED8     		bhi	.L13
 276 0066 DFE803F0 		tbb	[pc, r3]
 277              	.L16:
 278 006a 17       		.byte	(.L15-.L16)/2
 279 006b 12       		.byte	(.L17-.L16)/2
 280 006c 0D       		.byte	(.L18-.L16)/2
 281 006d 08       		.byte	(.L19-.L16)/2
 282 006e 03       		.byte	(.L20-.L16)/2
 283 006f 00       		.p2align 1
 284              	.L20:
 285              		.loc 1 80 0
ARM GAS  C:\Users\CHENZE~1\AppData\Local\Temp\ccOOgDD7.s 			page 6


 286 0070 06A9     		add	r1, sp, #24
 287              	.LVL17:
 288 0072 3046     		mov	r0, r6
 289 0074 FFF7FEFF 		bl	_ZL18can_processEncoderPV17Encoder_canStructPK10CANRxFrame
 290              	.LVL18:
 291 0078 E4E7     		b	.L13
 292              	.L19:
 293              		.loc 1 72 0
 294 007a 06A9     		add	r1, sp, #24
 295              	.LVL19:
 296 007c 3846     		mov	r0, r7
 297 007e FFF7FEFF 		bl	_ZL18can_processEncoderPV17Encoder_canStructPK10CANRxFrame
 298              	.LVL20:
 299 0082 DFE7     		b	.L13
 300              	.L18:
 301              		.loc 1 76 0
 302 0084 06A9     		add	r1, sp, #24
 303              	.LVL21:
 304 0086 4046     		mov	r0, r8
 305 0088 FFF7FEFF 		bl	_ZL18can_processEncoderPV17Encoder_canStructPK10CANRxFrame
 306              	.LVL22:
 307 008c DAE7     		b	.L13
 308              	.L17:
 309              		.loc 1 68 0
 310 008e 06A9     		add	r1, sp, #24
 311              	.LVL23:
 312 0090 0C48     		ldr	r0, .L27+12
 313 0092 FFF7FEFF 		bl	_ZL18can_processEncoderPV17Encoder_canStructPK10CANRxFrame
 314              	.LVL24:
 315 0096 D5E7     		b	.L13
 316              	.L15:
 317              		.loc 1 64 0
 318 0098 06A9     		add	r1, sp, #24
 319              	.LVL25:
 320 009a 0B48     		ldr	r0, .L27+16
 321 009c FFF7FEFF 		bl	_ZL18can_processEncoderPV17Encoder_canStructPK10CANRxFrame
 322              	.LVL26:
 323 00a0 D0E7     		b	.L13
 324              	.LVL27:
 325              	.L10:
 326              	.LBE85:
 327              	.LBE88:
 328              		.loc 1 112 0
 329 00a2 01A9     		add	r1, sp, #4
 330              	.LVL28:
 331 00a4 4846     		mov	r0, r9
 332 00a6 FFF7FEFF 		bl	chEvtUnregister
 333              	.LVL29:
 334              		.loc 1 115 0
 335 00aa 074A     		ldr	r2, .L27+16
 336 00ac 074B     		ldr	r3, .L27+20
 337 00ae 1269     		ldr	r2, [r2, #16]	@ float
 338 00b0 1A60     		str	r2, [r3]	@ float
 339              		.loc 1 116 0
 340 00b2 0DB0     		add	sp, sp, #52
 341              		.cfi_def_cfa_offset 28
 342              		@ sp needed
ARM GAS  C:\Users\CHENZE~1\AppData\Local\Temp\ccOOgDD7.s 			page 7


 343 00b4 BDE8F083 		pop	{r4, r5, r6, r7, r8, r9, pc}
 344              	.LVL30:
 345              	.L28:
 346              		.align	2
 347              	.L27:
 348 00b8 00000000 		.word	ch
 349 00bc 00000000 		.word	.LC0
 350 00c0 60000000 		.word	.LANCHOR0+96
 351 00c4 18000000 		.word	.LANCHOR0+24
 352 00c8 00000000 		.word	.LANCHOR0
 353 00cc 00000000 		.word	_ZN7gripper13initial_angleE
 354              		.cfi_endproc
 355              	.LFE264:
 356              		.size	_ZL6can_rxPv, .-_ZL6can_rxPv
 357              		.section	.text._Z14can_getEncoderv,"ax",%progbits
 358              		.align	1
 359              		.p2align 4,,15
 360              		.global	_Z14can_getEncoderv
 361              		.syntax unified
 362              		.thumb
 363              		.thumb_func
 364              		.fpu softvfp
 365              		.type	_Z14can_getEncoderv, %function
 366              	_Z14can_getEncoderv:
 367              	.LFB261:
 368              		.loc 1 32 0
 369              		.cfi_startproc
 370              		@ args = 0, pretend = 0, frame = 0
 371              		@ frame_needed = 0, uses_anonymous_args = 0
 372              		@ link register save eliminated.
 373              		.loc 1 34 0
 374 0000 0048     		ldr	r0, .L30
 375 0002 7047     		bx	lr
 376              	.L31:
 377              		.align	2
 378              	.L30:
 379 0004 00000000 		.word	.LANCHOR0
 380              		.cfi_endproc
 381              	.LFE261:
 382              		.size	_Z14can_getEncoderv, .-_Z14can_getEncoderv
 383              		.section	.text._Z19can_motorSetCurrenttssss,"ax",%progbits
 384              		.align	1
 385              		.p2align 4,,15
 386              		.global	_Z19can_motorSetCurrenttssss
 387              		.syntax unified
 388              		.thumb
 389              		.thumb_func
 390              		.fpu softvfp
 391              		.type	_Z19can_motorSetCurrenttssss, %function
 392              	_Z19can_motorSetCurrenttssss:
 393              	.LFB265:
 394              		.loc 1 131 0
 395              		.cfi_startproc
 396              		@ args = 4, pretend = 0, frame = 16
 397              		@ frame_needed = 0, uses_anonymous_args = 0
 398              	.LVL31:
 399 0000 70B5     		push	{r4, r5, r6, lr}
ARM GAS  C:\Users\CHENZE~1\AppData\Local\Temp\ccOOgDD7.s 			page 8


 400              		.cfi_def_cfa_offset 16
 401              		.cfi_offset 4, -16
 402              		.cfi_offset 5, -12
 403              		.cfi_offset 6, -8
 404              		.cfi_offset 14, -4
 405              		.loc 1 137 0
 406 0002 0826     		movs	r6, #8
 407              		.loc 1 131 0
 408 0004 84B0     		sub	sp, sp, #16
 409              		.cfi_def_cfa_offset 32
 410              		.loc 1 134 0
 411 0006 9DF80040 		ldrb	r4, [sp]	@ zero_extendqisi2
 412              		.loc 1 135 0
 413 000a 019D     		ldr	r5, [sp, #4]
 414              		.loc 1 137 0
 415 000c 04F0CF04 		and	r4, r4, #207
 416 0010 66F30304 		bfi	r4, r6, #0, #4
 417              		.loc 1 135 0
 418 0014 60F31C05 		bfi	r5, r0, #0, #29
 419              		.loc 1 137 0
 420 0018 8DF80040 		strb	r4, [sp]
 421              	.LVL32:
 422              		.loc 1 135 0
 423 001c 0195     		str	r5, [sp, #4]
 424              		.loc 1 131 0
 425 001e BDF92000 		ldrsh	r0, [sp, #32]
 426              	.LVL33:
 427              	.LBB89:
 428              	.LBB90:
 429              	.LBB91:
 430              	.LBB92:
 431              		.loc 2 493 0
 432 0022 2024     		movs	r4, #32
 433              		.syntax unified
 434              	@ 493 ".//os/common/ext/ARM/CMSIS/Core/Include/cmsis_gcc.h" 1
 435 0024 84F31188 		MSR basepri, r4
 436              	@ 0 "" 2
 437              	.LVL34:
 438              		.thumb
 439              		.syntax unified
 440              	.LBE92:
 441              	.LBE91:
 442              	.LBE90:
 443              	.LBE89:
 444              		.loc 1 142 0
 445 0028 41FA06F6 		asr	r6, r1, r6
 446              		.loc 1 145 0
 447 002c 1512     		asrs	r5, r2, #8
 448              		.loc 1 148 0
 449 002e 1C12     		asrs	r4, r3, #8
 450              		.loc 1 143 0
 451 0030 8DF80910 		strb	r1, [sp, #9]
 452              		.loc 1 151 0
 453 0034 0112     		asrs	r1, r0, #8
 454              	.LVL35:
 455 0036 8DF80E10 		strb	r1, [sp, #14]
 456              		.loc 1 142 0
ARM GAS  C:\Users\CHENZE~1\AppData\Local\Temp\ccOOgDD7.s 			page 9


 457 003a 8DF80860 		strb	r6, [sp, #8]
 458              		.loc 1 146 0
 459 003e 8DF80B20 		strb	r2, [sp, #11]
 460              		.loc 1 145 0
 461 0042 8DF80A50 		strb	r5, [sp, #10]
 462              		.loc 1 149 0
 463 0046 8DF80D30 		strb	r3, [sp, #13]
 464              		.loc 1 148 0
 465 004a 8DF80C40 		strb	r4, [sp, #12]
 466              		.loc 1 152 0
 467 004e 8DF80F00 		strb	r0, [sp, #15]
 468              	.LVL36:
 469              	.LBB93:
 470              	.LBB94:
 471              	.LBB95:
 472              	.LBB96:
 473              	.LBB97:
 474              		.loc 2 493 0
 475 0052 0021     		movs	r1, #0
 476              		.syntax unified
 477              	@ 493 ".//os/common/ext/ARM/CMSIS/Core/Include/cmsis_gcc.h" 1
 478 0054 81F31188 		MSR basepri, r1
 479              	@ 0 "" 2
 480              	.LVL37:
 481              		.thumb
 482              		.syntax unified
 483              	.LBE97:
 484              	.LBE96:
 485              	.LBE95:
 486              	.LBE94:
 487              	.LBE93:
 488              		.loc 1 156 0
 489 0058 C823     		movs	r3, #200
 490              	.LVL38:
 491 005a 6A46     		mov	r2, sp
 492              	.LVL39:
 493 005c 0248     		ldr	r0, .L34
 494 005e FFF7FEFF 		bl	canTransmitTimeout
 495              	.LVL40:
 496              		.loc 1 157 0
 497 0062 04B0     		add	sp, sp, #16
 498              		.cfi_def_cfa_offset 16
 499              		@ sp needed
 500 0064 70BD     		pop	{r4, r5, r6, pc}
 501              	.LVL41:
 502              	.L35:
 503 0066 00BF     		.align	2
 504              	.L34:
 505 0068 00000000 		.word	CAND1
 506              		.cfi_endproc
 507              	.LFE265:
 508              		.size	_Z19can_motorSetCurrenttssss, .-_Z19can_motorSetCurrenttssss
 509              		.section	.text._Z15can_processInitv,"ax",%progbits
 510              		.align	1
 511              		.p2align 4,,15
 512              		.global	_Z15can_processInitv
 513              		.syntax unified
ARM GAS  C:\Users\CHENZE~1\AppData\Local\Temp\ccOOgDD7.s 			page 10


 514              		.thumb
 515              		.thumb_func
 516              		.fpu softvfp
 517              		.type	_Z15can_processInitv, %function
 518              	_Z15can_processInitv:
 519              	.LFB266:
 520              		.loc 1 161 0
 521              		.cfi_startproc
 522              		@ args = 0, pretend = 0, frame = 0
 523              		@ frame_needed = 0, uses_anonymous_args = 0
 524 0000 70B5     		push	{r4, r5, r6, lr}
 525              		.cfi_def_cfa_offset 16
 526              		.cfi_offset 4, -16
 527              		.cfi_offset 5, -12
 528              		.cfi_offset 6, -8
 529              		.cfi_offset 14, -4
 530              		.loc 1 162 0
 531 0002 9022     		movs	r2, #144
 532 0004 0021     		movs	r1, #0
 533              		.loc 1 161 0
 534 0006 82B0     		sub	sp, sp, #8
 535              		.cfi_def_cfa_offset 24
 536              		.loc 1 162 0
 537 0008 1748     		ldr	r0, .L40
 538 000a FFF7FEFF 		bl	memset
 539              	.LVL42:
 540 000e 0022     		movs	r2, #0
 541 0010 164D     		ldr	r5, .L40+4
 542              		.loc 1 171 0
 543 0012 1646     		mov	r6, r2
 544 0014 2946     		mov	r1, r5
 545              	.LVL43:
 546              	.L37:
 547              		.loc 1 167 0 discriminator 2
 548 0016 02EB4204 		add	r4, r2, r2, lsl #1
 549 001a 05EB8400 		add	r0, r5, r4, lsl #2
 550              		.loc 1 168 0 discriminator 2
 551 001e 8378     		ldrb	r3, [r0, #2]	@ zero_extendqisi2
 552              		.loc 1 167 0 discriminator 2
 553 0020 25F82420 		strh	r2, [r5, r4, lsl #2]	@ movhi
 554              		.loc 1 169 0 discriminator 2
 555 0024 03F0FE03 		and	r3, r3, #254
 556              		.loc 1 170 0 discriminator 2
 557 0028 43F00203 		orr	r3, r3, #2
 558 002c 0132     		adds	r2, r2, #1
 559              	.LVL44:
 560 002e 6FF38203 		bfc	r3, #2, #1
 561              		.loc 1 165 0 discriminator 2
 562 0032 1C2A     		cmp	r2, #28
 563              		.loc 1 170 0 discriminator 2
 564 0034 8370     		strb	r3, [r0, #2]
 565              		.loc 1 172 0 discriminator 2
 566 0036 C1E90166 		strd	r6, r6, [r1, #4]
 567 003a 01F10C01 		add	r1, r1, #12
 568              		.loc 1 165 0 discriminator 2
 569 003e EAD1     		bne	.L37
 570              		.loc 1 174 0
ARM GAS  C:\Users\CHENZE~1\AppData\Local\Temp\ccOOgDD7.s 			page 11


 571 0040 0B4C     		ldr	r4, .L40+8
 572 0042 0A4B     		ldr	r3, .L40+4
 573 0044 2046     		mov	r0, r4
 574 0046 0E21     		movs	r1, #14
 575 0048 FFF7FEFF 		bl	canSTM32SetFilters
 576              	.LVL45:
 577              		.loc 1 176 0
 578 004c 2046     		mov	r0, r4
 579 004e 0949     		ldr	r1, .L40+12
 580 0050 FFF7FEFF 		bl	canStart
 581              	.LVL46:
 582              		.loc 1 180 0
 583 0054 0094     		str	r4, [sp]
 584 0056 084B     		ldr	r3, .L40+16
 585 0058 8722     		movs	r2, #135
 586 005a 4FF4E471 		mov	r1, #456
 587 005e 0748     		ldr	r0, .L40+20
 588 0060 FFF7FEFF 		bl	chThdCreateStatic
 589              	.LVL47:
 590              		.loc 1 182 0
 591 0064 02B0     		add	sp, sp, #8
 592              		.cfi_def_cfa_offset 16
 593              		@ sp needed
 594 0066 70BD     		pop	{r4, r5, r6, pc}
 595              	.L41:
 596              		.align	2
 597              	.L40:
 598 0068 00000000 		.word	.LANCHOR0
 599 006c 00000000 		.word	.LANCHOR1
 600 0070 00000000 		.word	CAND1
 601 0074 00000000 		.word	.LANCHOR2
 602 0078 00000000 		.word	_ZL6can_rxPv
 603 007c 00000000 		.word	.LANCHOR3
 604              		.cfi_endproc
 605              	.LFE266:
 606              		.size	_Z15can_processInitv, .-_Z15can_processInitv
 607              		.section	.bss._ZL10can_rx1_wa,"aw",%nobits
 608              		.align	3
 609              		.set	.LANCHOR3,. + 0
 610              		.type	_ZL10can_rx1_wa, %object
 611              		.size	_ZL10can_rx1_wa, 456
 612              	_ZL10can_rx1_wa:
 613 0000 00000000 		.space	456
 613      00000000 
 613      00000000 
 613      00000000 
 613      00000000 
 614              		.section	.bss._ZL8_encoder,"aw",%nobits
 615              		.align	2
 616              		.set	.LANCHOR0,. + 0
 617              		.type	_ZL8_encoder, %object
 618              		.size	_ZL8_encoder, 144
 619              	_ZL8_encoder:
 620 0000 00000000 		.space	144
 620      00000000 
 620      00000000 
 620      00000000 
ARM GAS  C:\Users\CHENZE~1\AppData\Local\Temp\ccOOgDD7.s 			page 12


 620      00000000 
 621              		.section	.bss._ZL9canfilter,"aw",%nobits
 622              		.align	2
 623              		.set	.LANCHOR1,. + 0
 624              		.type	_ZL9canfilter, %object
 625              		.size	_ZL9canfilter, 336
 626              	_ZL9canfilter:
 627 0000 00000000 		.space	336
 627      00000000 
 627      00000000 
 627      00000000 
 627      00000000 
 628              		.section	.rodata._ZL6can_rxPv.str1.4,"aMS",%progbits,1
 629              		.align	2
 630              	.LC0:
 631 0000 63616E20 		.ascii	"can receiver\000"
 631      72656365 
 631      69766572 
 631      00
 632              		.section	.rodata._ZL6cancfg,"a",%progbits
 633              		.align	2
 634              		.set	.LANCHOR2,. + 0
 635              		.type	_ZL6cancfg, %object
 636              		.size	_ZL6cancfg, 8
 637              	_ZL6cancfg:
 638 0000 64000000 		.word	100
 639 0004 02001800 		.word	1572866
 640              		.text
 641              	.Letext0:
 642              		.file 6 "c:\\chibistudio\\tools\\gnu tools arm embedded\\7.0 2017q4\\lib\\gcc\\arm-none-eabi\\7.2.
 643              		.file 7 "c:\\chibistudio\\tools\\gnu tools arm embedded\\7.0 2017q4\\arm-none-eabi\\include\\machi
 644              		.file 8 "c:\\chibistudio\\tools\\gnu tools arm embedded\\7.0 2017q4\\arm-none-eabi\\include\\sys\\
 645              		.file 9 ".//os/common/ports/ARMCMx/compilers/GCC/chtypes.h"
 646              		.file 10 ".//os/rt/include/chsystypes.h"
 647              		.file 11 ".//os/rt/include/chschd.h"
 648              		.file 12 ".//os/rt/include/chtime.h"
 649              		.file 13 ".//os/common/ext/ARM/CMSIS/Core/Include/core_cm3.h"
 650              		.file 14 ".//os/common/ext/ST/STM32F1xx/system_stm32f1xx.h"
 651              		.file 15 ".//os/common/ext/ST/STM32F1xx/stm32f103xb.h"
 652              		.file 16 ".//os/common/ports/ARMCMx/chcore.h"
 653              		.file 17 ".//os/common/ports/ARMCMx/chcore_v7m.h"
 654              		.file 18 ".//os/rt/include/chsem.h"
 655              		.file 19 ".//os/rt/include/chmtx.h"
 656              		.file 20 ".//os/rt/include/chsys.h"
 657              		.file 21 ".//os/lib/include/chmemcore.h"
 658              		.file 22 ".//os/lib/include/chmempools.h"
 659              		.file 23 ".//os/lib/include/chfactory.h"
 660              		.file 24 ".//os/hal/ports/STM32/LLD/DMAv1/stm32_dma.h"
 661              		.file 25 ".//os/hal/include/hal_pal.h"
 662              		.file 26 ".//os/hal/ports/STM32/LLD/GPIOv1/hal_pal_lld.h"
 663              		.file 27 ".//os/hal/include/hal_can.h"
 664              		.file 28 ".//os/hal/ports/STM32/LLD/CANv1/hal_can_lld.h"
 665              		.file 29 ".//os/hal/include/hal_uart.h"
 666              		.file 30 ".//os/hal/ports/STM32/LLD/USARTv1/hal_uart_lld.h"
 667              		.file 31 "c:\\chibistudio\\tools\\gnu tools arm embedded\\7.0 2017q4\\arm-none-eabi\\include\\sys\
 668              		.file 32 "c:\\chibistudio\\tools\\gnu tools arm embedded\\7.0 2017q4\\arm-none-eabi\\include\\sys\
 669              		.file 33 "c:\\chibistudio\\tools\\gnu tools arm embedded\\7.0 2017q4\\arm-none-eabi\\include\\sys\
ARM GAS  C:\Users\CHENZE~1\AppData\Local\Temp\ccOOgDD7.s 			page 13


 670              		.file 34 "./src/canBusProcess.h"
 671              		.file 35 "c:\\chibistudio\\tools\\gnu tools arm embedded\\7.0 2017q4\\arm-none-eabi\\include\\c++\
 672              		.file 36 "c:\\chibistudio\\tools\\gnu tools arm embedded\\7.0 2017q4\\arm-none-eabi\\include\\c++\
 673              		.file 37 "c:\\chibistudio\\tools\\gnu tools arm embedded\\7.0 2017q4\\arm-none-eabi\\include\\stdl
 674              		.file 38 "c:\\chibistudio\\tools\\gnu tools arm embedded\\7.0 2017q4\\arm-none-eabi\\include\\c++\
 675              		.file 39 "./src/gripper.hpp"
 676              		.file 40 "<built-in>"