ARM GAS  C:\Users\CHENZE~1\AppData\Local\Temp\ccnrE9AH.s 			page 1


   1              		.cpu cortex-m3
   2              		.eabi_attribute 20, 1
   3              		.eabi_attribute 21, 1
   4              		.eabi_attribute 23, 3
   5              		.eabi_attribute 24, 1
   6              		.eabi_attribute 25, 1
   7              		.eabi_attribute 26, 1
   8              		.eabi_attribute 30, 2
   9              		.eabi_attribute 34, 1
  10              		.eabi_attribute 18, 4
  11              		.file	"gripper.cpp"
  12              		.text
  13              	.Ltext0:
  14              		.cfi_sections	.debug_frame
  15              		.section	.text._ZN7gripper4gripEb,"ax",%progbits
  16              		.align	1
  17              		.p2align 4,,15
  18              		.global	_ZN7gripper4gripEb
  19              		.syntax unified
  20              		.thumb
  21              		.thumb_func
  22              		.fpu softvfp
  23              		.type	_ZN7gripper4gripEb, %function
  24              	_ZN7gripper4gripEb:
  25              	.LFB261:
  26              		.file 1 "./src/gripper.cpp"
  27              		.loc 1 21 0
  28              		.cfi_startproc
  29              		@ args = 0, pretend = 0, frame = 0
  30              		@ frame_needed = 0, uses_anonymous_args = 0
  31              		@ link register save eliminated.
  32              	.LVL0:
  33              		.loc 1 23 0
  34 0000 0222     		movs	r2, #2
  35 0002 034B     		ldr	r3, .L6
  36              		.loc 1 22 0
  37 0004 08B1     		cbz	r0, .L5
  38              		.loc 1 26 0
  39 0006 1A61     		str	r2, [r3, #16]
  40              		.loc 1 28 0
  41 0008 7047     		bx	lr
  42              	.L5:
  43              		.loc 1 23 0
  44 000a 5A61     		str	r2, [r3, #20]
  45 000c 7047     		bx	lr
  46              	.L7:
  47 000e 00BF     		.align	2
  48              	.L6:
  49 0010 00080140 		.word	1073809408
  50              		.cfi_endproc
  51              	.LFE261:
  52              		.size	_ZN7gripper4gripEb, .-_ZN7gripper4gripEb
  53              		.section	.text._ZN7gripper8sub_gripEb,"ax",%progbits
  54              		.align	1
  55              		.p2align 4,,15
  56              		.global	_ZN7gripper8sub_gripEb
  57              		.syntax unified
ARM GAS  C:\Users\CHENZE~1\AppData\Local\Temp\ccnrE9AH.s 			page 2


  58              		.thumb
  59              		.thumb_func
  60              		.fpu softvfp
  61              		.type	_ZN7gripper8sub_gripEb, %function
  62              	_ZN7gripper8sub_gripEb:
  63              	.LFB263:
  64              		.loc 1 67 0
  65              		.cfi_startproc
  66              		@ args = 0, pretend = 0, frame = 0
  67              		@ frame_needed = 0, uses_anonymous_args = 0
  68              	.LVL1:
  69 0000 38B5     		push	{r3, r4, r5, lr}
  70              		.cfi_def_cfa_offset 16
  71              		.cfi_offset 3, -16
  72              		.cfi_offset 4, -12
  73              		.cfi_offset 5, -8
  74              		.cfi_offset 14, -4
  75              		.loc 1 69 0
  76 0002 0125     		movs	r5, #1
  77 0004 0E4C     		ldr	r4, .L13
  78              		.loc 1 68 0
  79 0006 88B1     		cbz	r0, .L12
  80              		.loc 1 78 0
  81 0008 4FF4FA60 		mov	r0, #2000
  82              	.LVL2:
  83              		.loc 1 77 0
  84 000c 6561     		str	r5, [r4, #20]
  85              		.loc 1 78 0
  86 000e FFF7FEFF 		bl	chThdSleep
  87              	.LVL3:
  88              		.loc 1 79 0
  89 0012 8023     		movs	r3, #128
  90              		.loc 1 80 0
  91 0014 4FF4FA60 		mov	r0, #2000
  92              		.loc 1 79 0
  93 0018 6361     		str	r3, [r4, #20]
  94              	.L11:
  95              		.loc 1 80 0
  96 001a FFF7FEFF 		bl	chThdSleep
  97              	.LVL4:
  98              		.loc 1 81 0
  99 001e 2561     		str	r5, [r4, #16]
 100              		.loc 1 82 0
 101 0020 4FF4FA60 		mov	r0, #2000
 102              		.loc 1 84 0
 103 0024 BDE83840 		pop	{r3, r4, r5, lr}
 104              		.cfi_remember_state
 105              		.cfi_restore 14
 106              		.cfi_restore 5
 107              		.cfi_restore 4
 108              		.cfi_restore 3
 109              		.cfi_def_cfa_offset 0
 110              		.loc 1 82 0
 111 0028 FFF7FEBF 		b	chThdSleep
 112              	.LVL5:
 113              	.L12:
 114              		.cfi_restore_state
ARM GAS  C:\Users\CHENZE~1\AppData\Local\Temp\ccnrE9AH.s 			page 3


 115              		.loc 1 70 0
 116 002c 4FF4FA60 		mov	r0, #2000
 117              	.LVL6:
 118              		.loc 1 69 0
 119 0030 6561     		str	r5, [r4, #20]
 120              		.loc 1 70 0
 121 0032 FFF7FEFF 		bl	chThdSleep
 122              	.LVL7:
 123              		.loc 1 71 0
 124 0036 8023     		movs	r3, #128
 125              		.loc 1 72 0
 126 0038 4FF4FA60 		mov	r0, #2000
 127              		.loc 1 71 0
 128 003c 2361     		str	r3, [r4, #16]
 129 003e ECE7     		b	.L11
 130              	.L14:
 131              		.align	2
 132              	.L13:
 133 0040 00080140 		.word	1073809408
 134              		.cfi_endproc
 135              	.LFE263:
 136              		.size	_ZN7gripper8sub_gripEb, .-_ZN7gripper8sub_gripEb
 137              		.global	__aeabi_fsub
 138              		.global	__aeabi_f2iz
 139              		.global	__aeabi_i2f
 140              		.global	__aeabi_fadd
 141              		.global	__aeabi_fmul
 142              		.global	__aeabi_fcmple
 143              		.global	__aeabi_fcmpge
 144              		.global	__aeabi_fcmpgt
 145              		.global	__aeabi_fcmplt
 146              		.section	.text._ZN7gripper11pid_controlEffPfS0_Ps,"ax",%progbits
 147              		.align	1
 148              		.p2align 4,,15
 149              		.global	_ZN7gripper11pid_controlEffPfS0_Ps
 150              		.syntax unified
 151              		.thumb
 152              		.thumb_func
 153              		.fpu softvfp
 154              		.type	_ZN7gripper11pid_controlEffPfS0_Ps, %function
 155              	_ZN7gripper11pid_controlEffPfS0_Ps:
 156              	.LFB264:
 157              		.loc 1 88 0
 158              		.cfi_startproc
 159              		@ args = 4, pretend = 0, frame = 0
 160              		@ frame_needed = 0, uses_anonymous_args = 0
 161              	.LVL8:
 162 0000 2DE9F84F 		push	{r3, r4, r5, r6, r7, r8, r9, r10, fp, lr}
 163              		.cfi_def_cfa_offset 40
 164              		.cfi_offset 3, -40
 165              		.cfi_offset 4, -36
 166              		.cfi_offset 5, -32
 167              		.cfi_offset 6, -28
 168              		.cfi_offset 7, -24
 169              		.cfi_offset 8, -20
 170              		.cfi_offset 9, -16
 171              		.cfi_offset 10, -12
ARM GAS  C:\Users\CHENZE~1\AppData\Local\Temp\ccnrE9AH.s 			page 4


 172              		.cfi_offset 11, -8
 173              		.cfi_offset 14, -4
 174              		.loc 1 88 0
 175 0004 1446     		mov	r4, r2
 176 0006 1F46     		mov	r7, r3
 177              		.loc 1 94 0
 178 0008 FFF7FEFF 		bl	__aeabi_fsub
 179              	.LVL9:
 180 000c FFF7FEFF 		bl	__aeabi_f2iz
 181              	.LVL10:
 182 0010 06B2     		sxth	r6, r0
 183              	.LVL11:
 184              		.loc 1 95 0
 185 0012 3046     		mov	r0, r6
 186 0014 FFF7FEFF 		bl	__aeabi_i2f
 187              	.LVL12:
 188 0018 2168     		ldr	r1, [r4]	@ float
 189 001a 0546     		mov	r5, r0
 190 001c FFF7FEFF 		bl	__aeabi_fadd
 191              	.LVL13:
 192              		.loc 1 96 0
 193 0020 4FF07C51 		mov	r1, #1056964608
 194 0024 FFF7FEFF 		bl	__aeabi_fmul
 195              	.LVL14:
 196              		.loc 1 88 0
 197 0028 DDF82890 		ldr	r9, [sp, #40]
 198              		.loc 1 96 0
 199 002c 2060     		str	r0, [r4]	@ float
 200              		.loc 1 98 0
 201 002e B9F90000 		ldrsh	r0, [r9]
 202 0032 301A     		subs	r0, r6, r0
 203 0034 FFF7FEFF 		bl	__aeabi_i2f
 204              	.LVL15:
 205              		.loc 1 100 0
 206 0038 2949     		ldr	r1, .L29
 207              		.loc 1 98 0
 208 003a 8046     		mov	r8, r0
 209 003c 3860     		str	r0, [r7]	@ float
 210              		.loc 1 100 0
 211 003e 2846     		mov	r0, r5
 212 0040 FFF7FEFF 		bl	__aeabi_fcmple
 213              	.LVL16:
 214 0044 28B1     		cbz	r0, .L27
 215              		.loc 1 100 0 is_stmt 0 discriminator 1
 216 0046 2749     		ldr	r1, .L29+4
 217 0048 2846     		mov	r0, r5
 218 004a FFF7FEFF 		bl	__aeabi_fcmpge
 219              	.LVL17:
 220 004e 0028     		cmp	r0, #0
 221 0050 3ED1     		bne	.L18
 222              	.L27:
 223 0052 254B     		ldr	r3, .L29+8
 224 0054 D3F800B0 		ldr	fp, [r3]	@ float
 225              	.L17:
 226              		.loc 1 103 0 is_stmt 1
 227 0058 244B     		ldr	r3, .L29+12
 228 005a 2768     		ldr	r7, [r4]	@ float
ARM GAS  C:\Users\CHENZE~1\AppData\Local\Temp\ccnrE9AH.s 			page 5


 229              	.LVL18:
 230 005c 1968     		ldr	r1, [r3]	@ float
 231 005e 3846     		mov	r0, r7
 232 0060 FFF7FEFF 		bl	__aeabi_fmul
 233              	.LVL19:
 234 0064 5946     		mov	r1, fp
 235 0066 8246     		mov	r10, r0
 236 0068 2846     		mov	r0, r5
 237 006a FFF7FEFF 		bl	__aeabi_fmul
 238              	.LVL20:
 239 006e 0146     		mov	r1, r0
 240 0070 5046     		mov	r0, r10
 241 0072 FFF7FEFF 		bl	__aeabi_fadd
 242              	.LVL21:
 243              		.loc 1 104 0
 244 0076 1E4B     		ldr	r3, .L29+16
 245              		.loc 1 103 0
 246 0078 0546     		mov	r5, r0
 247              		.loc 1 104 0
 248 007a 1968     		ldr	r1, [r3]	@ float
 249 007c 4046     		mov	r0, r8
 250 007e FFF7FEFF 		bl	__aeabi_fmul
 251              	.LVL22:
 252 0082 0146     		mov	r1, r0
 253 0084 2846     		mov	r0, r5
 254 0086 FFF7FEFF 		bl	__aeabi_fadd
 255              	.LVL23:
 256              		.loc 1 103 0
 257 008a FFF7FEFF 		bl	__aeabi_f2iz
 258              	.LVL24:
 259              		.loc 1 109 0
 260 008e DFF86C80 		ldr	r8, .L29+28
 261              		.loc 1 103 0
 262 0092 05B2     		sxth	r5, r0
 263              	.LVL25:
 264              		.loc 1 109 0
 265 0094 4146     		mov	r1, r8
 266 0096 3846     		mov	r0, r7
 267 0098 FFF7FEFF 		bl	__aeabi_fcmpgt
 268              	.LVL26:
 269 009c 30B9     		cbnz	r0, .L28
 270              		.loc 1 111 0
 271 009e DFF86080 		ldr	r8, .L29+32
 272 00a2 3846     		mov	r0, r7
 273 00a4 4146     		mov	r1, r8
 274 00a6 FFF7FEFF 		bl	__aeabi_fcmplt
 275              	.LVL27:
 276 00aa 08B1     		cbz	r0, .L21
 277              	.L28:
 278              		.loc 1 112 0
 279 00ac C4F80080 		str	r8, [r4]	@ float
 280              	.L21:
 281              		.loc 1 114 0
 282 00b0 0420     		movs	r0, #4
 283 00b2 FFF7FEFF 		bl	chThdSleep
 284              	.LVL28:
 285 00b6 0F4B     		ldr	r3, .L29+20
ARM GAS  C:\Users\CHENZE~1\AppData\Local\Temp\ccnrE9AH.s 			page 6


 286              		.loc 1 123 0
 287 00b8 41F28830 		movw	r0, #5000
 288 00bc 9D42     		cmp	r5, r3
 289 00be B8BF     		it	lt
 290 00c0 1D46     		movlt	r5, r3
 291              	.LVL29:
 292              		.loc 1 124 0
 293 00c2 A842     		cmp	r0, r5
 294              		.loc 1 116 0
 295 00c4 A9F80060 		strh	r6, [r9]	@ movhi
 296              		.loc 1 124 0
 297 00c8 A8BF     		it	ge
 298 00ca 2846     		movge	r0, r5
 299 00cc BDE8F88F 		pop	{r3, r4, r5, r6, r7, r8, r9, r10, fp, pc}
 300              	.LVL30:
 301              	.L18:
 302              		.loc 1 100 0 discriminator 2
 303 00d0 094B     		ldr	r3, .L29+24
 304 00d2 054A     		ldr	r2, .L29+8
 305 00d4 9B46     		mov	fp, r3
 306 00d6 1360     		str	r3, [r2]	@ float
 307 00d8 D7F80080 		ldr	r8, [r7]	@ float
 308 00dc BCE7     		b	.L17
 309              	.L30:
 310 00de 00BF     		.align	2
 311              	.L29:
 312 00e0 8D2C9F41 		.word	1100950669
 313 00e4 8D2C9FC1 		.word	-1046532979
 314 00e8 00000000 		.word	.LANCHOR0
 315 00ec 00000000 		.word	.LANCHOR1
 316 00f0 00000000 		.word	.LANCHOR2
 317 00f4 78ECFFFF 		.word	-5000
 318 00f8 00001643 		.word	1125515264
 319 00fc F9021550 		.word	1343554297
 320 0100 F90215D0 		.word	-803929351
 321              		.cfi_endproc
 322              	.LFE264:
 323              		.size	_ZN7gripper11pid_controlEffPfS0_Ps, .-_ZN7gripper11pid_controlEffPfS0_Ps
 324              		.global	__aeabi_i2d
 325              		.global	__aeabi_dmul
 326              		.global	__aeabi_d2iz
 327              		.global	__aeabi_fcmpeq
 328              		.section	.text._ZN7gripper6rotateEi,"ax",%progbits
 329              		.align	1
 330              		.p2align 4,,15
 331              		.global	_ZN7gripper6rotateEi
 332              		.syntax unified
 333              		.thumb
 334              		.thumb_func
 335              		.fpu softvfp
 336              		.type	_ZN7gripper6rotateEi, %function
 337              	_ZN7gripper6rotateEi:
 338              	.LFB262:
 339              		.loc 1 30 0
 340              		.cfi_startproc
 341              		@ args = 0, pretend = 0, frame = 0
 342              		@ frame_needed = 0, uses_anonymous_args = 0
ARM GAS  C:\Users\CHENZE~1\AppData\Local\Temp\ccnrE9AH.s 			page 7


 343              	.LVL31:
 344 0000 2DE9F04F 		push	{r4, r5, r6, r7, r8, r9, r10, fp, lr}
 345              		.cfi_def_cfa_offset 36
 346              		.cfi_offset 4, -36
 347              		.cfi_offset 5, -32
 348              		.cfi_offset 6, -28
 349              		.cfi_offset 7, -24
 350              		.cfi_offset 8, -20
 351              		.cfi_offset 9, -16
 352              		.cfi_offset 10, -12
 353              		.cfi_offset 11, -8
 354              		.cfi_offset 14, -4
 355 0004 0446     		mov	r4, r0
 356 0006 83B0     		sub	sp, sp, #12
 357              		.cfi_def_cfa_offset 48
 358              		.loc 1 37 0
 359 0008 0026     		movs	r6, #0
 360 000a 3F4F     		ldr	r7, .L45
 361 000c 3F4D     		ldr	r5, .L45+4
 362              		.loc 1 55 0
 363 000e DFF81091 		ldr	r9, .L45+24
 364              		.loc 1 33 0
 365 0012 DFF81081 		ldr	r8, .L45+28
 366 0016 0BE0     		b	.L37
 367              	.LVL32:
 368              	.L32:
 369              		.loc 1 43 0
 370 0018 032C     		cmp	r4, #3
 371 001a 47D0     		beq	.L43
 372              		.loc 1 54 0
 373 001c 022C     		cmp	r4, #2
 374 001e 68D0     		beq	.L44
 375              	.L34:
 376              		.loc 1 59 0
 377 0020 0420     		movs	r0, #4
 378 0022 FFF7FEFF 		bl	chThdSleep
 379              	.LVL33:
 380              		.loc 1 60 0
 381 0026 2B68     		ldr	r3, [r5]
 382 0028 5B88     		ldrh	r3, [r3, #2]
 383 002a 1BB2     		sxth	r3, r3
 384 002c 002B     		cmp	r3, #0
 385 002e 32D0     		beq	.L33
 386              	.L37:
 387              		.loc 1 32 0
 388 0030 012C     		cmp	r4, #1
 389 0032 F1D1     		bne	.L32
 390              		.loc 1 33 0
 391 0034 DFF8F0A0 		ldr	r10, .L45+32
 392 0038 2B68     		ldr	r3, [r5]
 393 003a DAF80000 		ldr	r0, [r10]	@ float
 394 003e 4146     		mov	r1, r8
 395              		.loc 1 34 0
 396 0040 D3F810B0 		ldr	fp, [r3, #16]	@ float
 397              		.loc 1 33 0
 398 0044 FFF7FEFF 		bl	__aeabi_fadd
 399              	.LVL34:
ARM GAS  C:\Users\CHENZE~1\AppData\Local\Temp\ccnrE9AH.s 			page 8


 400 0048 314B     		ldr	r3, .L45+8
 401 004a 324A     		ldr	r2, .L45+12
 402 004c 5946     		mov	r1, fp
 403 004e 0093     		str	r3, [sp]
 404 0050 314B     		ldr	r3, .L45+16
 405 0052 FFF7FEFF 		bl	_ZN7gripper11pid_controlEffPfS0_Ps
 406              	.LVL35:
 407 0056 314B     		ldr	r3, .L45+20
 408 0058 1880     		strh	r0, [r3]	@ movhi
 409              		.loc 1 37 0
 410 005a FFF7FEFF 		bl	__aeabi_i2d
 411              	.LVL36:
 412 005e 3246     		mov	r2, r6
 413 0060 3B46     		mov	r3, r7
 414 0062 FFF7FEFF 		bl	__aeabi_dmul
 415              	.LVL37:
 416 0066 FFF7FEFF 		bl	__aeabi_d2iz
 417              	.LVL38:
 418 006a 0023     		movs	r3, #0
 419 006c 01B2     		sxth	r1, r0
 420 006e 1A46     		mov	r2, r3
 421 0070 0093     		str	r3, [sp]
 422 0072 40F2FF10 		movw	r0, #511
 423 0076 FFF7FEFF 		bl	_Z19can_motorSetCurrenttssss
 424              	.LVL39:
 425              		.loc 1 38 0
 426 007a 2B68     		ldr	r3, [r5]
 427 007c DAF80000 		ldr	r0, [r10]	@ float
 428 0080 4146     		mov	r1, r8
 429 0082 D3F810A0 		ldr	r10, [r3, #16]	@ float
 430 0086 FFF7FEFF 		bl	__aeabi_fadd
 431              	.LVL40:
 432 008a 0146     		mov	r1, r0
 433 008c 5046     		mov	r0, r10
 434 008e FFF7FEFF 		bl	__aeabi_fcmpeq
 435              	.LVL41:
 436 0092 0028     		cmp	r0, #0
 437 0094 C4D0     		beq	.L34
 438              	.L33:
 439              		.loc 1 39 0
 440 0096 0023     		movs	r3, #0
 441 0098 40F2FF10 		movw	r0, #511
 442 009c 0093     		str	r3, [sp]
 443 009e 1A46     		mov	r2, r3
 444 00a0 1946     		mov	r1, r3
 445 00a2 FFF7FEFF 		bl	_Z19can_motorSetCurrenttssss
 446              	.LVL42:
 447              		.loc 1 65 0
 448 00a6 03B0     		add	sp, sp, #12
 449              		.cfi_remember_state
 450              		.cfi_def_cfa_offset 36
 451              		@ sp needed
 452 00a8 BDE8F08F 		pop	{r4, r5, r6, r7, r8, r9, r10, fp, pc}
 453              	.LVL43:
 454              	.L43:
 455              		.cfi_restore_state
 456              		.loc 1 44 0
ARM GAS  C:\Users\CHENZE~1\AppData\Local\Temp\ccnrE9AH.s 			page 9


 457 00ac 2B68     		ldr	r3, [r5]
 458 00ae DFF878A0 		ldr	r10, .L45+32
 459              		.loc 1 45 0
 460 00b2 1969     		ldr	r1, [r3, #16]	@ float
 461              		.loc 1 44 0
 462 00b4 164B     		ldr	r3, .L45+8
 463 00b6 DAF80000 		ldr	r0, [r10]	@ float
 464 00ba 164A     		ldr	r2, .L45+12
 465 00bc 0093     		str	r3, [sp]
 466 00be 164B     		ldr	r3, .L45+16
 467 00c0 FFF7FEFF 		bl	_ZN7gripper11pid_controlEffPfS0_Ps
 468              	.LVL44:
 469              		.loc 1 48 0
 470 00c4 0023     		movs	r3, #0
 471              		.loc 1 44 0
 472 00c6 DFF854C0 		ldr	ip, .L45+20
 473              		.loc 1 48 0
 474 00ca C0EB0011 		rsb	r1, r0, r0, lsl #4
 475 00ce 09B2     		sxth	r1, r1
 476 00d0 0093     		str	r3, [sp]
 477 00d2 1A46     		mov	r2, r3
 478              		.loc 1 44 0
 479 00d4 ACF80000 		strh	r0, [ip]	@ movhi
 480              		.loc 1 48 0
 481 00d8 40F2FF10 		movw	r0, #511
 482 00dc FFF7FEFF 		bl	_Z19can_motorSetCurrenttssss
 483              	.LVL45:
 484              		.loc 1 49 0
 485 00e0 2B68     		ldr	r3, [r5]
 486 00e2 DAF80010 		ldr	r1, [r10]	@ float
 487 00e6 1869     		ldr	r0, [r3, #16]	@ float
 488 00e8 FFF7FEFF 		bl	__aeabi_fcmpeq
 489              	.LVL46:
 490 00ec 0028     		cmp	r0, #0
 491 00ee 97D0     		beq	.L34
 492 00f0 D1E7     		b	.L33
 493              	.L44:
 494              		.loc 1 55 0
 495 00f2 4FF0040A 		mov	r10, #4
 496              		.loc 1 56 0
 497 00f6 4FF47A60 		mov	r0, #4000
 498              		.loc 1 55 0
 499 00fa C9F814A0 		str	r10, [r9, #20]
 500              		.loc 1 56 0
 501 00fe FFF7FEFF 		bl	chThdSleep
 502              	.LVL47:
 503              		.loc 1 57 0
 504 0102 C9F810A0 		str	r10, [r9, #16]
 505 0106 8BE7     		b	.L34
 506              	.L46:
 507              		.align	2
 508              	.L45:
 509 0108 0000D03F 		.word	1070596096
 510 010c 00000000 		.word	.LANCHOR3
 511 0110 00000000 		.word	.LANCHOR7
 512 0114 00000000 		.word	.LANCHOR5
 513 0118 00000000 		.word	.LANCHOR4
ARM GAS  C:\Users\CHENZE~1\AppData\Local\Temp\ccnrE9AH.s 			page 10


 514 011c 00000000 		.word	.LANCHOR8
 515 0120 00080140 		.word	1073809408
 516 0124 FB460B42 		.word	1108035323
 517 0128 00000000 		.word	.LANCHOR6
 518              		.cfi_endproc
 519              	.LFE262:
 520              		.size	_ZN7gripper6rotateEi, .-_ZN7gripper6rotateEi
 521              		.section	.text.startup._GLOBAL__sub_I_encoder,"ax",%progbits
 522              		.align	1
 523              		.p2align 4,,15
 524              		.syntax unified
 525              		.thumb
 526              		.thumb_func
 527              		.fpu softvfp
 528              		.type	_GLOBAL__sub_I_encoder, %function
 529              	_GLOBAL__sub_I_encoder:
 530              	.LFB266:
 531              		.loc 1 124 0
 532              		.cfi_startproc
 533              		@ args = 0, pretend = 0, frame = 0
 534              		@ frame_needed = 0, uses_anonymous_args = 0
 535              	.LVL48:
 536 0000 08B5     		push	{r3, lr}
 537              		.cfi_def_cfa_offset 8
 538              		.cfi_offset 3, -8
 539              		.cfi_offset 14, -4
 540              	.LBB4:
 541              	.LBB5:
 542              		.loc 1 9 0
 543 0002 FFF7FEFF 		bl	_Z14can_getEncoderv
 544              	.LVL49:
 545 0006 014B     		ldr	r3, .L49
 546 0008 1860     		str	r0, [r3]
 547              	.LVL50:
 548              	.LBE5:
 549              	.LBE4:
 550              		.loc 1 124 0
 551 000a 08BD     		pop	{r3, pc}
 552              	.L50:
 553              		.align	2
 554              	.L49:
 555 000c 00000000 		.word	.LANCHOR3
 556              		.cfi_endproc
 557              	.LFE266:
 558              		.size	_GLOBAL__sub_I_encoder, .-_GLOBAL__sub_I_encoder
 559              		.section	.init_array,"aw",%init_array
 560              		.align	2
 561 0000 00000000 		.word	_GLOBAL__sub_I_encoder(target1)
 562              		.global	_ZN7gripper12motor_outputE
 563              		.global	_ZN7gripper14previous_errorE
 564              		.global	_ZN7gripper15motor_error_derE
 565              		.global	_ZN7gripper15motor_error_intE
 566              		.global	_ZN7gripper10gripper_kdE
 567              		.global	_ZN7gripper10gripper_kiE
 568              		.global	_ZN7gripper10gripper_kpE
 569              		.global	_ZN7gripper13initial_angleE
 570              		.global	encoder
ARM GAS  C:\Users\CHENZE~1\AppData\Local\Temp\ccnrE9AH.s 			page 11


 571              		.section	.bss._ZN7gripper12motor_outputE,"aw",%nobits
 572              		.align	1
 573              		.set	.LANCHOR8,. + 0
 574              		.type	_ZN7gripper12motor_outputE, %object
 575              		.size	_ZN7gripper12motor_outputE, 2
 576              	_ZN7gripper12motor_outputE:
 577 0000 0000     		.space	2
 578              		.section	.bss._ZN7gripper13initial_angleE,"aw",%nobits
 579              		.align	2
 580              		.set	.LANCHOR6,. + 0
 581              		.type	_ZN7gripper13initial_angleE, %object
 582              		.size	_ZN7gripper13initial_angleE, 4
 583              	_ZN7gripper13initial_angleE:
 584 0000 00000000 		.space	4
 585              		.section	.bss._ZN7gripper14previous_errorE,"aw",%nobits
 586              		.align	1
 587              		.set	.LANCHOR7,. + 0
 588              		.type	_ZN7gripper14previous_errorE, %object
 589              		.size	_ZN7gripper14previous_errorE, 2
 590              	_ZN7gripper14previous_errorE:
 591 0000 0000     		.space	2
 592              		.section	.bss._ZN7gripper15motor_error_derE,"aw",%nobits
 593              		.align	2
 594              		.set	.LANCHOR4,. + 0
 595              		.type	_ZN7gripper15motor_error_derE, %object
 596              		.size	_ZN7gripper15motor_error_derE, 4
 597              	_ZN7gripper15motor_error_derE:
 598 0000 00000000 		.space	4
 599              		.section	.bss._ZN7gripper15motor_error_intE,"aw",%nobits
 600              		.align	2
 601              		.set	.LANCHOR5,. + 0
 602              		.type	_ZN7gripper15motor_error_intE, %object
 603              		.size	_ZN7gripper15motor_error_intE, 4
 604              	_ZN7gripper15motor_error_intE:
 605 0000 00000000 		.space	4
 606              		.section	.bss.encoder,"aw",%nobits
 607              		.align	2
 608              		.set	.LANCHOR3,. + 0
 609              		.type	encoder, %object
 610              		.size	encoder, 4
 611              	encoder:
 612 0000 00000000 		.space	4
 613              		.section	.data._ZN7gripper10gripper_kdE,"aw",%progbits
 614              		.align	2
 615              		.set	.LANCHOR2,. + 0
 616              		.type	_ZN7gripper10gripper_kdE, %object
 617              		.size	_ZN7gripper10gripper_kdE, 4
 618              	_ZN7gripper10gripper_kdE:
 619 0000 0080BB44 		.word	1153138688
 620              		.section	.data._ZN7gripper10gripper_kiE,"aw",%progbits
 621              		.align	2
 622              		.set	.LANCHOR1,. + 0
 623              		.type	_ZN7gripper10gripper_kiE, %object
 624              		.size	_ZN7gripper10gripper_kiE, 4
 625              	_ZN7gripper10gripper_kiE:
 626 0000 0000003F 		.word	1056964608
 627              		.section	.data._ZN7gripper10gripper_kpE,"aw",%progbits
ARM GAS  C:\Users\CHENZE~1\AppData\Local\Temp\ccnrE9AH.s 			page 12


 628              		.align	2
 629              		.set	.LANCHOR0,. + 0
 630              		.type	_ZN7gripper10gripper_kpE, %object
 631              		.size	_ZN7gripper10gripper_kpE, 4
 632              	_ZN7gripper10gripper_kpE:
 633 0000 00001643 		.word	1125515264
 634              		.text
 635              	.Letext0:
 636              		.file 2 "c:\\chibistudio\\tools\\gnu tools arm embedded\\7.0 2017q4\\lib\\gcc\\arm-none-eabi\\7.2.
 637              		.file 3 "c:\\chibistudio\\tools\\gnu tools arm embedded\\7.0 2017q4\\arm-none-eabi\\include\\machi
 638              		.file 4 "c:\\chibistudio\\tools\\gnu tools arm embedded\\7.0 2017q4\\arm-none-eabi\\include\\sys\\
 639              		.file 5 ".//os/common/ports/ARMCMx/compilers/GCC/chtypes.h"
 640              		.file 6 ".//os/rt/include/chsystypes.h"
 641              		.file 7 ".//os/rt/include/chschd.h"
 642              		.file 8 ".//os/rt/include/chtime.h"
 643              		.file 9 ".//os/common/ext/ARM/CMSIS/Core/Include/core_cm3.h"
 644              		.file 10 ".//os/common/ext/ST/STM32F1xx/system_stm32f1xx.h"
 645              		.file 11 ".//os/common/ext/ST/STM32F1xx/stm32f103xb.h"
 646              		.file 12 ".//os/common/ports/ARMCMx/chcore.h"
 647              		.file 13 ".//os/common/ports/ARMCMx/chcore_v7m.h"
 648              		.file 14 ".//os/rt/include/chsem.h"
 649              		.file 15 ".//os/rt/include/chmtx.h"
 650              		.file 16 ".//os/rt/include/chsys.h"
 651              		.file 17 ".//os/rt/include/chregistry.h"
 652              		.file 18 ".//os/rt/include/chevents.h"
 653              		.file 19 ".//os/lib/include/chmemcore.h"
 654              		.file 20 ".//os/lib/include/chmempools.h"
 655              		.file 21 ".//os/lib/include/chfactory.h"
 656              		.file 22 ".//os/hal/ports/STM32/LLD/DMAv1/stm32_dma.h"
 657              		.file 23 ".//os/hal/include/hal_pal.h"
 658              		.file 24 ".//os/hal/ports/STM32/LLD/GPIOv1/hal_pal_lld.h"
 659              		.file 25 ".//os/hal/include/hal_can.h"
 660              		.file 26 ".//os/hal/ports/STM32/LLD/CANv1/hal_can_lld.h"
 661              		.file 27 ".//os/hal/include/hal_uart.h"
 662              		.file 28 ".//os/hal/ports/STM32/LLD/USARTv1/hal_uart_lld.h"
 663              		.file 29 "c:\\chibistudio\\tools\\gnu tools arm embedded\\7.0 2017q4\\arm-none-eabi\\include\\sys\
 664              		.file 30 "c:\\chibistudio\\tools\\gnu tools arm embedded\\7.0 2017q4\\arm-none-eabi\\include\\sys\
 665              		.file 31 "c:\\chibistudio\\tools\\gnu tools arm embedded\\7.0 2017q4\\arm-none-eabi\\include\\sys\
 666              		.file 32 "./src/canBusProcess.h"
 667              		.file 33 "c:\\chibistudio\\tools\\gnu tools arm embedded\\7.0 2017q4\\arm-none-eabi\\include\\c++\
 668              		.file 34 "c:\\chibistudio\\tools\\gnu tools arm embedded\\7.0 2017q4\\arm-none-eabi\\include\\c++\
 669              		.file 35 "c:\\chibistudio\\tools\\gnu tools arm embedded\\7.0 2017q4\\arm-none-eabi\\include\\stdl
 670              		.file 36 "c:\\chibistudio\\tools\\gnu tools arm embedded\\7.0 2017q4\\arm-none-eabi\\include\\c++\
 671              		.file 37 "./src/gripper.hpp"
 672              		.file 38 "<built-in>"
 673              		.file 39 ".//os/rt/include/chthreads.h"