ARM GAS  C:\Users\CHENZE~1\AppData\Local\Temp\ccFgYUvA.s 			page 1


   1              		.cpu cortex-m3
   2              		.eabi_attribute 20, 1
   3              		.eabi_attribute 21, 1
   4              		.eabi_attribute 23, 3
   5              		.eabi_attribute 24, 1
   6              		.eabi_attribute 25, 1
   7              		.eabi_attribute 26, 1
   8              		.eabi_attribute 30, 2
   9              		.eabi_attribute 34, 1
  10              		.eabi_attribute 18, 4
  11              		.file	"main.cpp"
  12              		.text
  13              	.Ltext0:
  14              		.cfi_sections	.debug_frame
  15              		.global	__aeabi_i2f
  16              		.global	__aeabi_fadd
  17              		.global	__aeabi_f2d
  18              		.global	__aeabi_dmul
  19              		.global	__aeabi_d2f
  20              		.global	__aeabi_fmul
  21              		.global	__aeabi_f2iz
  22              		.global	__aeabi_fcmpgt
  23              		.global	__aeabi_fcmplt
  24              		.section	.text._ZL17pid_control_wheelssPfS_Ps,"ax",%progbits
  25              		.align	1
  26              		.p2align 4,,15
  27              		.syntax unified
  28              		.thumb
  29              		.thumb_func
  30              		.fpu softvfp
  31              		.type	_ZL17pid_control_wheelssPfS_Ps, %function
  32              	_ZL17pid_control_wheelssPfS_Ps:
  33              	.LFB262:
  34              		.file 1 "./src/main.cpp"
  35              		.loc 1 60 0
  36              		.cfi_startproc
  37              		@ args = 4, pretend = 0, frame = 0
  38              		@ frame_needed = 0, uses_anonymous_args = 0
  39              	.LVL0:
  40 0000 2DE9F047 		push	{r4, r5, r6, r7, r8, r9, r10, lr}
  41              		.cfi_def_cfa_offset 32
  42              		.cfi_offset 4, -32
  43              		.cfi_offset 5, -28
  44              		.cfi_offset 6, -24
  45              		.cfi_offset 7, -20
  46              		.cfi_offset 8, -16
  47              		.cfi_offset 9, -12
  48              		.cfi_offset 10, -8
  49              		.cfi_offset 14, -4
  50              		.loc 1 60 0
  51 0004 1546     		mov	r5, r2
  52 0006 8046     		mov	r8, r0
  53              		.loc 1 66 0
  54 0008 411A     		subs	r1, r0, r1
  55              	.LVL1:
  56 000a 0CB2     		sxth	r4, r1
  57              	.LVL2:
ARM GAS  C:\Users\CHENZE~1\AppData\Local\Temp\ccFgYUvA.s 			page 2


  58              		.loc 1 67 0
  59 000c 6000     		lsls	r0, r4, #1
  60              	.LVL3:
  61              		.loc 1 60 0
  62 000e 1E46     		mov	r6, r3
  63              		.loc 1 67 0
  64 0010 FFF7FEFF 		bl	__aeabi_i2f
  65              	.LVL4:
  66 0014 2968     		ldr	r1, [r5]	@ float
  67 0016 FFF7FEFF 		bl	__aeabi_fadd
  68              	.LVL5:
  69              		.loc 1 60 0
  70 001a 089F     		ldr	r7, [sp, #32]
  71              		.loc 1 68 0
  72 001c B8F1000F 		cmp	r8, #0
  73 0020 46D1     		bne	.L2
  74              		.loc 1 67 0
  75 0022 2860     		str	r0, [r5]	@ float
  76              	.L3:
  77              		.loc 1 69 0
  78 0024 B7F90000 		ldrsh	r0, [r7]
  79              		.loc 1 76 0
  80 0028 DFF8B480 		ldr	r8, .L14+24
  81              		.loc 1 69 0
  82 002c 201A     		subs	r0, r4, r0
  83 002e 00EBD070 		add	r0, r0, r0, lsr #31
  84 0032 4010     		asrs	r0, r0, #1
  85 0034 FFF7FEFF 		bl	__aeabi_i2f
  86              	.LVL6:
  87 0038 3060     		str	r0, [r6]	@ float
  88 003a 8246     		mov	r10, r0
  89              		.loc 1 71 0
  90 003c 2046     		mov	r0, r4
  91 003e FFF7FEFF 		bl	__aeabi_i2f
  92              	.LVL7:
  93 0042 2349     		ldr	r1, .L14+8
  94 0044 FFF7FEFF 		bl	__aeabi_fmul
  95              	.LVL8:
  96 0048 D5F80090 		ldr	r9, [r5]	@ float
  97 004c 0646     		mov	r6, r0
  98              	.LVL9:
  99 004e 2149     		ldr	r1, .L14+12
 100 0050 4846     		mov	r0, r9
 101 0052 FFF7FEFF 		bl	__aeabi_fmul
 102              	.LVL10:
 103 0056 0146     		mov	r1, r0
 104 0058 3046     		mov	r0, r6
 105 005a FFF7FEFF 		bl	__aeabi_fadd
 106              	.LVL11:
 107              		.loc 1 72 0
 108 005e 1E49     		ldr	r1, .L14+16
 109              		.loc 1 71 0
 110 0060 0646     		mov	r6, r0
 111              		.loc 1 72 0
 112 0062 5046     		mov	r0, r10
 113 0064 FFF7FEFF 		bl	__aeabi_fmul
 114              	.LVL12:
ARM GAS  C:\Users\CHENZE~1\AppData\Local\Temp\ccFgYUvA.s 			page 3


 115 0068 0146     		mov	r1, r0
 116 006a 3046     		mov	r0, r6
 117 006c FFF7FEFF 		bl	__aeabi_fadd
 118              	.LVL13:
 119              		.loc 1 71 0
 120 0070 FFF7FEFF 		bl	__aeabi_f2iz
 121              	.LVL14:
 122              		.loc 1 76 0
 123 0074 4146     		mov	r1, r8
 124              		.loc 1 71 0
 125 0076 06B2     		sxth	r6, r0
 126              	.LVL15:
 127              		.loc 1 76 0
 128 0078 4846     		mov	r0, r9
 129 007a FFF7FEFF 		bl	__aeabi_fcmpgt
 130              	.LVL16:
 131 007e 30B9     		cbnz	r0, .L12
 132              		.loc 1 78 0
 133 0080 DFF86080 		ldr	r8, .L14+28
 134 0084 4846     		mov	r0, r9
 135 0086 4146     		mov	r1, r8
 136 0088 FFF7FEFF 		bl	__aeabi_fcmplt
 137              	.LVL17:
 138 008c 08B1     		cbz	r0, .L6
 139              	.L12:
 140              		.loc 1 79 0
 141 008e C5F80080 		str	r8, [r5]	@ float
 142              	.L6:
 143              		.loc 1 81 0
 144 0092 0420     		movs	r0, #4
 145 0094 FFF7FEFF 		bl	chThdSleep
 146              	.LVL18:
 147 0098 104B     		ldr	r3, .L14+20
 148              		.loc 1 90 0
 149 009a 42F21070 		movw	r0, #10000
 150 009e 9E42     		cmp	r6, r3
 151 00a0 B8BF     		it	lt
 152 00a2 1E46     		movlt	r6, r3
 153              	.LVL19:
 154              		.loc 1 91 0
 155 00a4 B042     		cmp	r0, r6
 156              		.loc 1 83 0
 157 00a6 3C80     		strh	r4, [r7]	@ movhi
 158              		.loc 1 91 0
 159 00a8 A8BF     		it	ge
 160 00aa 3046     		movge	r0, r6
 161 00ac BDE8F087 		pop	{r4, r5, r6, r7, r8, r9, r10, pc}
 162              	.LVL20:
 163              	.L2:
 164              		.loc 1 68 0 discriminator 1
 165 00b0 FFF7FEFF 		bl	__aeabi_f2d
 166              	.LVL21:
 167 00b4 04A3     		adr	r3, .L14
 168 00b6 D3E90023 		ldrd	r2, [r3]
 169 00ba FFF7FEFF 		bl	__aeabi_dmul
 170              	.LVL22:
 171 00be FFF7FEFF 		bl	__aeabi_d2f
ARM GAS  C:\Users\CHENZE~1\AppData\Local\Temp\ccFgYUvA.s 			page 4


 172              	.LVL23:
 173 00c2 2860     		str	r0, [r5]	@ float
 174 00c4 AEE7     		b	.L3
 175              	.L15:
 176 00c6 00BF     		.align	3
 177              	.L14:
 178 00c8 66666666 		.word	1717986918
 179 00cc 6666EE3F 		.word	1072588390
 180 00d0 9A99193F 		.word	1058642330
 181 00d4 8FC2F53D 		.word	1039516303
 182 00d8 8FC2753D 		.word	1031127695
 183 00dc F0D8FFFF 		.word	-10000
 184 00e0 00401C46 		.word	1176256512
 185 00e4 00401CC6 		.word	-971227136
 186              		.cfi_endproc
 187              	.LFE262:
 188              		.size	_ZL17pid_control_wheelssPfS_Ps, .-_ZL17pid_control_wheelssPfS_Ps
 189              		.global	__aeabi_fdiv
 190              		.section	.text._ZL17motor_ctrl_threadPv,"ax",%progbits
 191              		.align	1
 192              		.p2align 4,,15
 193              		.syntax unified
 194              		.thumb
 195              		.thumb_func
 196              		.fpu softvfp
 197              		.type	_ZL17motor_ctrl_threadPv, %function
 198              	_ZL17motor_ctrl_threadPv:
 199              	.LFB263:
 200              		.loc 1 94 0
 201              		.cfi_startproc
 202              		@ args = 0, pretend = 0, frame = 8
 203              		@ frame_needed = 0, uses_anonymous_args = 0
 204              	.LVL24:
 205 0000 2DE9F04F 		push	{r4, r5, r6, r7, r8, r9, r10, fp, lr}
 206              		.cfi_def_cfa_offset 36
 207              		.cfi_offset 4, -36
 208              		.cfi_offset 5, -32
 209              		.cfi_offset 6, -28
 210              		.cfi_offset 7, -24
 211              		.cfi_offset 8, -20
 212              		.cfi_offset 9, -16
 213              		.cfi_offset 10, -12
 214              		.cfi_offset 11, -8
 215              		.cfi_offset 14, -4
 216 0004 85B0     		sub	sp, sp, #20
 217              		.cfi_def_cfa_offset 56
 218              		.loc 1 97 0
 219 0006 FFF7FEFF 		bl	_Z14can_getEncoderv
 220              	.LVL25:
 221 000a 594D     		ldr	r5, .L35
 222 000c DFF870A1 		ldr	r10, .L35+16
 223 0010 DFF87491 		ldr	r9, .L35+24
 224 0014 DFF87481 		ldr	r8, .L35+28
 225 0018 0390     		str	r0, [sp, #12]
 226              	.LVL26:
 227              	.L27:
 228              	.LBB9:
ARM GAS  C:\Users\CHENZE~1\AppData\Local\Temp\ccFgYUvA.s 			page 5


 229              		.loc 1 106 0
 230 001a 564B     		ldr	r3, .L35+4
 231 001c 1E68     		ldr	r6, [r3]
 232 001e 3088     		ldrh	r0, [r6]
 233 0020 A0F57573 		sub	r3, r0, #980
 234 0024 582B     		cmp	r3, #88
 235 0026 40F29E80 		bls	.L17
 236 002a A0F58060 		sub	r0, r0, #1024
 237 002e FFF7FEFF 		bl	__aeabi_i2f
 238              	.LVL27:
 239 0032 5149     		ldr	r1, .L35+8
 240 0034 FFF7FEFF 		bl	__aeabi_fmul
 241              	.LVL28:
 242 0038 5049     		ldr	r1, .L35+12
 243 003a FFF7FEFF 		bl	__aeabi_fdiv
 244              	.LVL29:
 245 003e FFF7FEFF 		bl	__aeabi_f2iz
 246              	.LVL30:
 247 0042 84B2     		uxth	r4, r0
 248              	.L18:
 249              		.loc 1 108 0
 250 0044 7088     		ldrh	r0, [r6, #2]
 251 0046 A0F57573 		sub	r3, r0, #980
 252 004a 582B     		cmp	r3, #88
 253 004c 40F28480 		bls	.L19
 254 0050 A0F58060 		sub	r0, r0, #1024
 255 0054 FFF7FEFF 		bl	__aeabi_i2f
 256              	.LVL31:
 257 0058 4749     		ldr	r1, .L35+8
 258 005a FFF7FEFF 		bl	__aeabi_fmul
 259              	.LVL32:
 260 005e 4749     		ldr	r1, .L35+12
 261 0060 FFF7FEFF 		bl	__aeabi_fdiv
 262              	.LVL33:
 263 0064 FFF7FEFF 		bl	__aeabi_f2iz
 264              	.LVL34:
 265 0068 1FFA80FB 		uxth	fp, r0
 266 006c 04EB0B00 		add	r0, r4, fp
 267 0070 87B2     		uxth	r7, r0
 268              	.L20:
 269              		.loc 1 110 0
 270 0072 B088     		ldrh	r0, [r6, #4]
 271 0074 A0F57573 		sub	r3, r0, #980
 272 0078 582B     		cmp	r3, #88
 273 007a 66D9     		bls	.L21
 274 007c A0F58060 		sub	r0, r0, #1024
 275 0080 FFF7FEFF 		bl	__aeabi_i2f
 276              	.LVL35:
 277 0084 3C49     		ldr	r1, .L35+8
 278 0086 FFF7FEFF 		bl	__aeabi_fmul
 279              	.LVL36:
 280 008a 3C49     		ldr	r1, .L35+12
 281 008c FFF7FEFF 		bl	__aeabi_fdiv
 282              	.LVL37:
 283 0090 FFF7FEFF 		bl	__aeabi_f2iz
 284              	.LVL38:
 285 0094 82B2     		uxth	r2, r0
ARM GAS  C:\Users\CHENZE~1\AppData\Local\Temp\ccFgYUvA.s 			page 6


 286 0096 0BEB0203 		add	r3, fp, r2
 287 009a 9BB2     		uxth	r3, r3
 288 009c BF1A     		subs	r7, r7, r2
 289 009e E018     		adds	r0, r4, r3
 290 00a0 2244     		add	r2, r2, r4
 291 00a2 B9B2     		uxth	r1, r7
 292 00a4 92B2     		uxth	r2, r2
 293 00a6 87B2     		uxth	r7, r0
 294              	.L22:
 295              	.LVL39:
 296              	.LBB10:
 297              		.loc 1 120 0
 298 00a8 F688     		ldrh	r6, [r6, #6]
 299              	.LVL40:
 300              	.LBE10:
 301              	.LBB14:
 302              	.LBB15:
 303              		.loc 1 50 0
 304 00aa 38B2     		sxth	r0, r7
 305              		.loc 1 51 0
 306 00ac A2EB0B02 		sub	r2, r2, fp
 307              		.loc 1 53 0
 308 00b0 E31A     		subs	r3, r4, r3
 309              	.LBE15:
 310              	.LBE14:
 311              	.LBB17:
 312              		.loc 1 120 0
 313 00b2 B6F5806F 		cmp	r6, #1024
 314              	.LBE17:
 315              	.LBB18:
 316              	.LBB16:
 317              		.loc 1 50 0
 318 00b6 2880     		strh	r0, [r5]	@ movhi
 319              		.loc 1 51 0
 320 00b8 6A80     		strh	r2, [r5, #2]	@ movhi
 321              		.loc 1 53 0
 322 00ba AB80     		strh	r3, [r5, #4]	@ movhi
 323              		.loc 1 52 0
 324 00bc E980     		strh	r1, [r5, #6]	@ movhi
 325              	.LBE16:
 326              	.LBE18:
 327              	.LBB19:
 328              		.loc 1 120 0
 329 00be 18D8     		bhi	.L23
 330 00c0 0024     		movs	r4, #0
 331 00c2 039E     		ldr	r6, [sp, #12]
 332 00c4 2E4F     		ldr	r7, .L35+16
 333              	.L24:
 334              	.LBB11:
 335              		.loc 1 130 0 discriminator 2
 336 00c6 2F4B     		ldr	r3, .L35+20
 337 00c8 7188     		ldrh	r1, [r6, #2]
 338 00ca 03EB040C 		add	ip, r3, r4
 339 00ce 6200     		lsls	r2, r4, #1
 340 00d0 09EB0203 		add	r3, r9, r2
 341 00d4 09B2     		sxth	r1, r1
 342 00d6 4244     		add	r2, r2, r8
ARM GAS  C:\Users\CHENZE~1\AppData\Local\Temp\ccFgYUvA.s 			page 7


 343 00d8 CDF800C0 		str	ip, [sp]
 344 00dc FFF7FEFF 		bl	_ZL17pid_control_wheelssPfS_Ps
 345              	.LVL41:
 346 00e0 0234     		adds	r4, r4, #2
 347              		.loc 1 129 0 discriminator 2
 348 00e2 082C     		cmp	r4, #8
 349 00e4 06F11806 		add	r6, r6, #24
 350              		.loc 1 130 0 discriminator 2
 351 00e8 27F8020B 		strh	r0, [r7], #2	@ movhi
 352              	.LVL42:
 353              		.loc 1 129 0 discriminator 2
 354 00ec 1CD0     		beq	.L25
 355 00ee 285F     		ldrsh	r0, [r5, r4]
 356 00f0 E9E7     		b	.L24
 357              	.L23:
 358              	.LBE11:
 359              	.LBB12:
 360              		.loc 1 121 0
 361 00f2 0024     		movs	r4, #0
 362 00f4 0320     		movs	r0, #3
 363 00f6 FFF7FEFF 		bl	_ZN7gripper6rotateEi
 364              	.LVL43:
 365 00fa 224E     		ldr	r6, .L35+20
 366 00fc 039F     		ldr	r7, [sp, #12]
 367 00fe DFF880B0 		ldr	fp, .L35+16
 368              	.LVL44:
 369              	.L26:
 370              	.LBB13:
 371              		.loc 1 124 0 discriminator 2
 372 0102 7988     		ldrh	r1, [r7, #2]
 373 0104 09EB0403 		add	r3, r9, r4
 374 0108 0096     		str	r6, [sp]
 375 010a 08EB0402 		add	r2, r8, r4
 376 010e 09B2     		sxth	r1, r1
 377 0110 0020     		movs	r0, #0
 378 0112 FFF7FEFF 		bl	_ZL17pid_control_wheelssPfS_Ps
 379              	.LVL45:
 380 0116 0434     		adds	r4, r4, #4
 381              		.loc 1 123 0 discriminator 2
 382 0118 102C     		cmp	r4, #16
 383 011a 07F11807 		add	r7, r7, #24
 384 011e 06F10206 		add	r6, r6, #2
 385              		.loc 1 124 0 discriminator 2
 386 0122 2BF8020B 		strh	r0, [fp], #2	@ movhi
 387              		.loc 1 123 0 discriminator 2
 388 0126 ECD1     		bne	.L26
 389              	.L25:
 390              	.LBE13:
 391              	.LBE12:
 392              	.LBE19:
 393              		.loc 1 135 0
 394 0128 BAF90600 		ldrsh	r0, [r10, #6]
 395 012c BAF90430 		ldrsh	r3, [r10, #4]
 396 0130 0090     		str	r0, [sp]
 397 0132 BAF90220 		ldrsh	r2, [r10, #2]
 398 0136 BAF90010 		ldrsh	r1, [r10]
 399 013a 4FF40070 		mov	r0, #512
ARM GAS  C:\Users\CHENZE~1\AppData\Local\Temp\ccFgYUvA.s 			page 8


 400 013e FFF7FEFF 		bl	_Z19can_motorSetCurrenttssss
 401              	.LVL46:
 402              		.loc 1 138 0
 403 0142 0420     		movs	r0, #4
 404 0144 FFF7FEFF 		bl	chThdSleep
 405              	.LVL47:
 406              	.LBE9:
 407              		.loc 1 139 0
 408 0148 67E7     		b	.L27
 409              	.L21:
 410              	.LBB20:
 411              		.loc 1 111 0
 412 014a 4FF48060 		mov	r0, #1024	@ movhi
 413 014e 3946     		mov	r1, r7
 414 0150 2246     		mov	r2, r4
 415 0152 5B46     		mov	r3, fp
 416 0154 B080     		strh	r0, [r6, #4]	@ movhi
 417 0156 A7E7     		b	.L22
 418              	.L19:
 419              		.loc 1 109 0
 420 0158 4FF48063 		mov	r3, #1024	@ movhi
 421 015c 2746     		mov	r7, r4
 422 015e 4FF0000B 		mov	fp, #0
 423 0162 7380     		strh	r3, [r6, #2]	@ movhi
 424 0164 85E7     		b	.L20
 425              	.L17:
 426              		.loc 1 107 0
 427 0166 4FF48063 		mov	r3, #1024	@ movhi
 428 016a 0024     		movs	r4, #0
 429 016c 3380     		strh	r3, [r6]	@ movhi
 430 016e 69E7     		b	.L18
 431              	.L36:
 432              		.align	2
 433              	.L35:
 434 0170 00000000 		.word	.LANCHOR1
 435 0174 00000000 		.word	.LANCHOR0
 436 0178 00803B46 		.word	1178304512
 437 017c 0000A544 		.word	1151664128
 438 0180 00000000 		.word	.LANCHOR2
 439 0184 00000000 		.word	.LANCHOR3
 440 0188 00000000 		.word	.LANCHOR4
 441 018c 00000000 		.word	.LANCHOR5
 442              	.LBE20:
 443              		.cfi_endproc
 444              	.LFE263:
 445              		.size	_ZL17motor_ctrl_threadPv, .-_ZL17motor_ctrl_threadPv
 446              		.section	.text.startup.main,"ax",%progbits
 447              		.align	1
 448              		.p2align 4,,15
 449              		.global	main
 450              		.syntax unified
 451              		.thumb
 452              		.thumb_func
 453              		.fpu softvfp
 454              		.type	main, %function
 455              	main:
 456              	.LFB264:
ARM GAS  C:\Users\CHENZE~1\AppData\Local\Temp\ccFgYUvA.s 			page 9


 457              		.loc 1 142 0
 458              		.cfi_startproc
 459              		@ Volatile: function does not return.
 460              		@ args = 0, pretend = 0, frame = 0
 461              		@ frame_needed = 0, uses_anonymous_args = 0
 462 0000 80B5     		push	{r7, lr}
 463              		.cfi_def_cfa_offset 8
 464              		.cfi_offset 7, -8
 465              		.cfi_offset 14, -4
 466 0002 82B0     		sub	sp, sp, #8
 467              		.cfi_def_cfa_offset 16
 468              		.loc 1 151 0
 469 0004 FFF7FEFF 		bl	halInit
 470              	.LVL48:
 471              		.loc 1 161 0
 472 0008 0127     		movs	r7, #1
 473              		.loc 1 152 0
 474 000a FFF7FEFF 		bl	chSysInit
 475              	.LVL49:
 476              		.loc 1 167 0
 477 000e 0026     		movs	r6, #0
 478              		.loc 1 154 0
 479 0010 FFF7FEFF 		bl	_Z7RC_initv
 480              	.LVL50:
 481              		.loc 1 155 0
 482 0014 FFF7FEFF 		bl	_Z15can_processInitv
 483              	.LVL51:
 484              		.loc 1 157 0
 485 0018 FFF7FEFF 		bl	_Z6RC_getv
 486              	.LVL52:
 487              		.loc 1 164 0
 488 001c 8021     		movs	r1, #128
 489              		.loc 1 162 0
 490 001e 0222     		movs	r2, #2
 491              		.loc 1 163 0
 492 0020 0423     		movs	r3, #4
 493              		.loc 1 161 0
 494 0022 164D     		ldr	r5, .L44
 495              		.loc 1 157 0
 496 0024 164C     		ldr	r4, .L44+4
 497 0026 2060     		str	r0, [r4]
 498              		.loc 1 161 0
 499 0028 2F61     		str	r7, [r5, #16]
 500              		.loc 1 167 0
 501 002a 1648     		ldr	r0, .L44+8
 502              		.loc 1 162 0
 503 002c 2A61     		str	r2, [r5, #16]
 504              		.loc 1 163 0
 505 002e 2B61     		str	r3, [r5, #16]
 506              		.loc 1 167 0
 507 0030 0A46     		mov	r2, r1
 508              		.loc 1 164 0
 509 0032 2961     		str	r1, [r5, #16]
 510              		.loc 1 167 0
 511 0034 144B     		ldr	r3, .L44+12
 512 0036 4FF43271 		mov	r1, #712
 513 003a 0096     		str	r6, [sp]
ARM GAS  C:\Users\CHENZE~1\AppData\Local\Temp\ccFgYUvA.s 			page 10


 514 003c FFF7FEFF 		bl	chThdCreateStatic
 515              	.LVL53:
 516              	.L39:
 517              		.loc 1 176 0
 518 0040 EB68     		ldr	r3, [r5, #12]
 519 0042 83F48073 		eor	r3, r3, #256
 520 0046 EB60     		str	r3, [r5, #12]
 521              		.loc 1 178 0
 522 0048 2368     		ldr	r3, [r4]
 523 004a 587A     		ldrb	r0, [r3, #9]	@ zero_extendqisi2
 524 004c FFF7FEFF 		bl	_ZN7gripper6rotateEi
 525              	.LVL54:
 526              		.loc 1 180 0
 527 0050 2368     		ldr	r3, [r4]
 528 0052 D888     		ldrh	r0, [r3, #6]
 529 0054 B0F5B670 		subs	r0, r0, #364
 530 0058 18BF     		it	ne
 531 005a 0120     		movne	r0, #1
 532 005c FFF7FEFF 		bl	_ZN7gripper4gripEb
 533              	.LVL55:
 534              		.loc 1 182 0
 535 0060 2368     		ldr	r3, [r4]
 536 0062 187A     		ldrb	r0, [r3, #8]	@ zero_extendqisi2
 537 0064 0328     		cmp	r0, #3
 538 0066 05D0     		beq	.L38
 539              		.loc 1 182 0 is_stmt 0 discriminator 1
 540 0068 10F1FF30 		adds	r0, r0, #-1
 541 006c 18BF     		it	ne
 542 006e 0120     		movne	r0, #1
 543 0070 FFF7FEFF 		bl	_ZN7gripper8sub_gripEb
 544              	.LVL56:
 545              	.L38:
 546              		.loc 1 184 0 is_stmt 1
 547 0074 0420     		movs	r0, #4
 548 0076 FFF7FEFF 		bl	chThdSleep
 549              	.LVL57:
 550              		.loc 1 176 0
 551 007a E1E7     		b	.L39
 552              	.L45:
 553              		.align	2
 554              	.L44:
 555 007c 00080140 		.word	1073809408
 556 0080 00000000 		.word	.LANCHOR0
 557 0084 00000000 		.word	.LANCHOR6
 558 0088 00000000 		.word	_ZL17motor_ctrl_threadPv
 559              		.cfi_endproc
 560              	.LFE264:
 561              		.size	main, .-main
 562              		.section	.bss._ZL12motor_output,"aw",%nobits
 563              		.align	2
 564              		.set	.LANCHOR2,. + 0
 565              		.type	_ZL12motor_output, %object
 566              		.size	_ZL12motor_output, 8
 567              	_ZL12motor_output:
 568 0000 00000000 		.space	8
 568      00000000 
 569              		.section	.bss._ZL14motor_speed_sp,"aw",%nobits
ARM GAS  C:\Users\CHENZE~1\AppData\Local\Temp\ccFgYUvA.s 			page 11


 570              		.align	2
 571              		.set	.LANCHOR1,. + 0
 572              		.type	_ZL14motor_speed_sp, %object
 573              		.size	_ZL14motor_speed_sp, 8
 574              	_ZL14motor_speed_sp:
 575 0000 00000000 		.space	8
 575      00000000 
 576              		.section	.bss._ZL20motor_ctrl_thread_wa,"aw",%nobits
 577              		.align	3
 578              		.set	.LANCHOR6,. + 0
 579              		.type	_ZL20motor_ctrl_thread_wa, %object
 580              		.size	_ZL20motor_ctrl_thread_wa, 712
 581              	_ZL20motor_ctrl_thread_wa:
 582 0000 00000000 		.space	712
 582      00000000 
 582      00000000 
 582      00000000 
 582      00000000 
 583              		.section	.bss._ZL2rc,"aw",%nobits
 584              		.align	2
 585              		.set	.LANCHOR0,. + 0
 586              		.type	_ZL2rc, %object
 587              		.size	_ZL2rc, 4
 588              	_ZL2rc:
 589 0000 00000000 		.space	4
 590              		.section	.bss._ZZL17motor_ctrl_threadPvE14previous_error,"aw",%nobits
 591              		.align	2
 592              		.set	.LANCHOR3,. + 0
 593              		.type	_ZZL17motor_ctrl_threadPvE14previous_error, %object
 594              		.size	_ZZL17motor_ctrl_threadPvE14previous_error, 8
 595              	_ZZL17motor_ctrl_threadPvE14previous_error:
 596 0000 00000000 		.space	8
 596      00000000 
 597              		.section	.bss._ZZL17motor_ctrl_threadPvE15motor_error_der,"aw",%nobits
 598              		.align	2
 599              		.set	.LANCHOR4,. + 0
 600              		.type	_ZZL17motor_ctrl_threadPvE15motor_error_der, %object
 601              		.size	_ZZL17motor_ctrl_threadPvE15motor_error_der, 16
 602              	_ZZL17motor_ctrl_threadPvE15motor_error_der:
 603 0000 00000000 		.space	16
 603      00000000 
 603      00000000 
 603      00000000 
 604              		.section	.bss._ZZL17motor_ctrl_threadPvE15motor_error_int,"aw",%nobits
 605              		.align	2
 606              		.set	.LANCHOR5,. + 0
 607              		.type	_ZZL17motor_ctrl_threadPvE15motor_error_int, %object
 608              		.size	_ZZL17motor_ctrl_threadPvE15motor_error_int, 16
 609              	_ZZL17motor_ctrl_threadPvE15motor_error_int:
 610 0000 00000000 		.space	16
 610      00000000 
 610      00000000 
 610      00000000 
 611              		.text
 612              	.Letext0:
 613              		.file 2 "c:\\chibistudio\\tools\\gnu tools arm embedded\\7.0 2017q4\\lib\\gcc\\arm-none-eabi\\7.2.
 614              		.file 3 "c:\\chibistudio\\tools\\gnu tools arm embedded\\7.0 2017q4\\arm-none-eabi\\include\\machi
ARM GAS  C:\Users\CHENZE~1\AppData\Local\Temp\ccFgYUvA.s 			page 12


 615              		.file 4 "c:\\chibistudio\\tools\\gnu tools arm embedded\\7.0 2017q4\\arm-none-eabi\\include\\sys\\
 616              		.file 5 ".//os/common/ports/ARMCMx/compilers/GCC/chtypes.h"
 617              		.file 6 ".//os/rt/include/chsystypes.h"
 618              		.file 7 ".//os/rt/include/chschd.h"
 619              		.file 8 ".//os/rt/include/chtime.h"
 620              		.file 9 ".//os/common/ext/ARM/CMSIS/Core/Include/core_cm3.h"
 621              		.file 10 ".//os/common/ext/ST/STM32F1xx/system_stm32f1xx.h"
 622              		.file 11 ".//os/common/ext/ST/STM32F1xx/stm32f103xb.h"
 623              		.file 12 ".//os/common/ports/ARMCMx/chcore.h"
 624              		.file 13 ".//os/common/ports/ARMCMx/chcore_v7m.h"
 625              		.file 14 ".//os/rt/include/chsem.h"
 626              		.file 15 ".//os/rt/include/chmtx.h"
 627              		.file 16 ".//os/rt/include/chsys.h"
 628              		.file 17 ".//os/rt/include/chregistry.h"
 629              		.file 18 ".//os/rt/include/chevents.h"
 630              		.file 19 ".//os/lib/include/chmemcore.h"
 631              		.file 20 ".//os/lib/include/chmempools.h"
 632              		.file 21 ".//os/lib/include/chfactory.h"
 633              		.file 22 ".//os/hal/ports/STM32/LLD/DMAv1/stm32_dma.h"
 634              		.file 23 ".//os/hal/include/hal_pal.h"
 635              		.file 24 ".//os/hal/ports/STM32/LLD/GPIOv1/hal_pal_lld.h"
 636              		.file 25 ".//os/hal/include/hal_can.h"
 637              		.file 26 ".//os/hal/ports/STM32/LLD/CANv1/hal_can_lld.h"
 638              		.file 27 ".//os/hal/include/hal_uart.h"
 639              		.file 28 ".//os/hal/ports/STM32/LLD/USARTv1/hal_uart_lld.h"
 640              		.file 29 "./src/dbus.h"
 641              		.file 30 "c:\\chibistudio\\tools\\gnu tools arm embedded\\7.0 2017q4\\arm-none-eabi\\include\\sys\
 642              		.file 31 "c:\\chibistudio\\tools\\gnu tools arm embedded\\7.0 2017q4\\arm-none-eabi\\include\\sys\
 643              		.file 32 "c:\\chibistudio\\tools\\gnu tools arm embedded\\7.0 2017q4\\arm-none-eabi\\include\\sys\
 644              		.file 33 "./src/canBusProcess.h"
 645              		.file 34 "c:\\chibistudio\\tools\\gnu tools arm embedded\\7.0 2017q4\\arm-none-eabi\\include\\c++\
 646              		.file 35 "c:\\chibistudio\\tools\\gnu tools arm embedded\\7.0 2017q4\\arm-none-eabi\\include\\c++\
 647              		.file 36 "c:\\chibistudio\\tools\\gnu tools arm embedded\\7.0 2017q4\\arm-none-eabi\\include\\stdl
 648              		.file 37 "c:\\chibistudio\\tools\\gnu tools arm embedded\\7.0 2017q4\\arm-none-eabi\\include\\c++\
 649              		.file 38 "./src/gripper.hpp"
 650              		.file 39 ".//os/hal/include/hal.h"
 651              		.file 40 ".//os/rt/include/chthreads.h"
 652              		.file 41 "<built-in>"